
kernel.riscv:     file format elf32-littleriscv


Disassembly of section .dmem:

00000000 <_interrupt_arr>:
	...

Disassembly of section .text.dram:

00000000 <_start>:
  li  x1, 0
   0:	00000093          	li	x1,0
  li  x3, 0
   4:	00000193          	li	x3,0
  li  x4, 0
   8:	00000213          	li	x4,0
  li  x5, 0
   c:	00000293          	li	x5,0
  li  x6, 0
  10:	00000313          	li	x6,0
  li  x7, 0
  14:	00000393          	li	x7,0
  li  x8, 0
  18:	00000413          	li	x8,0
  li  x9, 0
  1c:	00000493          	li	x9,0
  li  x10,0
  20:	00000513          	li	x10,0
  li  x11,0
  24:	00000593          	li	x11,0
  li  x12,0
  28:	00000613          	li	x12,0
  li  x13,0
  2c:	00000693          	li	x13,0
  li  x14,0
  30:	00000713          	li	x14,0
  li  x15,0
  34:	00000793          	li	x15,0
  li  x16,0
  38:	00000813          	li	x16,0
  li  x17,0
  3c:	00000893          	li	x17,0
  li  x18,0
  40:	00000913          	li	x18,0
  li  x19,0
  44:	00000993          	li	x19,0
  li  x20,0
  48:	00000a13          	li	x20,0
  li  x21,0
  4c:	00000a93          	li	x21,0
  li  x22,0
  50:	00000b13          	li	x22,0
  li  x23,0
  54:	00000b93          	li	x23,0
  li  x24,0
  58:	00000c13          	li	x24,0
  li  x25,0
  5c:	00000c93          	li	x25,0
  li  x26,0
  60:	00000d13          	li	x26,0
  li  x27,0
  64:	00000d93          	li	x27,0
  li  x28,0
  68:	00000e13          	li	x28,0
  li  x29,0
  6c:	00000e93          	li	x29,0
  li  x30,0
  70:	00000f13          	li	x30,0
  li  x31,0
  74:	00000f93          	li	x31,0
  # Enable FPU and clear fcsr.
  #
  # These are ignored by manycore hardware but might be
  # required by execution environments supporting 
  # exceptions (such as Spike).
  li t0, 0x00003000 # mstatus.FS
  78:	000032b7          	lui	x5,0x3
  csrs mstatus, t0 # enable FPU
  7c:	3002a073          	csrs	mstatus,x5
  fscsr x0
  80:	00301073          	fscsr	x0
  li t0, 0
  84:	00000293          	li	x5,0

  fcvt.s.w f0, x0 
  88:	d0007053          	fcvt.s.w	f0,x0
  fcvt.s.w f1, x0 
  8c:	d00070d3          	fcvt.s.w	f1,x0
  fcvt.s.w f2, x0 
  90:	d0007153          	fcvt.s.w	f2,x0
  fcvt.s.w f3, x0 
  94:	d00071d3          	fcvt.s.w	f3,x0
  fcvt.s.w f4, x0 
  98:	d0007253          	fcvt.s.w	f4,x0
  fcvt.s.w f5, x0 
  9c:	d00072d3          	fcvt.s.w	f5,x0
  fcvt.s.w f6, x0 
  a0:	d0007353          	fcvt.s.w	f6,x0
  fcvt.s.w f7, x0 
  a4:	d00073d3          	fcvt.s.w	f7,x0
  fcvt.s.w f8, x0 
  a8:	d0007453          	fcvt.s.w	f8,x0
  fcvt.s.w f9, x0 
  ac:	d00074d3          	fcvt.s.w	f9,x0
  fcvt.s.w f10,x0 
  b0:	d0007553          	fcvt.s.w	f10,x0
  fcvt.s.w f11,x0 
  b4:	d00075d3          	fcvt.s.w	f11,x0
  fcvt.s.w f12,x0 
  b8:	d0007653          	fcvt.s.w	f12,x0
  fcvt.s.w f13,x0 
  bc:	d00076d3          	fcvt.s.w	f13,x0
  fcvt.s.w f14,x0 
  c0:	d0007753          	fcvt.s.w	f14,x0
  fcvt.s.w f15,x0 
  c4:	d00077d3          	fcvt.s.w	f15,x0
  fcvt.s.w f16,x0 
  c8:	d0007853          	fcvt.s.w	f16,x0
  fcvt.s.w f17,x0 
  cc:	d00078d3          	fcvt.s.w	f17,x0
  fcvt.s.w f18,x0 
  d0:	d0007953          	fcvt.s.w	f18,x0
  fcvt.s.w f19,x0 
  d4:	d00079d3          	fcvt.s.w	f19,x0
  fcvt.s.w f20,x0 
  d8:	d0007a53          	fcvt.s.w	f20,x0
  fcvt.s.w f21,x0 
  dc:	d0007ad3          	fcvt.s.w	f21,x0
  fcvt.s.w f22,x0 
  e0:	d0007b53          	fcvt.s.w	f22,x0
  fcvt.s.w f23,x0 
  e4:	d0007bd3          	fcvt.s.w	f23,x0
  fcvt.s.w f24,x0 
  e8:	d0007c53          	fcvt.s.w	f24,x0
  fcvt.s.w f25,x0 
  ec:	d0007cd3          	fcvt.s.w	f25,x0
  fcvt.s.w f26,x0 
  f0:	d0007d53          	fcvt.s.w	f26,x0
  fcvt.s.w f27,x0 
  f4:	d0007dd3          	fcvt.s.w	f27,x0
  fcvt.s.w f28,x0 
  f8:	d0007e53          	fcvt.s.w	f28,x0
  fcvt.s.w f29,x0 
  fc:	d0007ed3          	fcvt.s.w	f29,x0
  fcvt.s.w f30,x0 
 100:	d0007f53          	fcvt.s.w	f30,x0
  fcvt.s.w f31,x0 
 104:	d0007fd3          	fcvt.s.w	f31,x0



  # initialize global pointer
  la gp, _gp
 108:	00000197          	auipc	x3,0x0
 10c:	70018193          	addi	x3,x3,1792 # 808 <_gp>

  la  tp, _bsg_data_end_addr + 63
 110:	0a700213          	li	x4,167
 114:	fc027213          	andi	x4,x4,-64
  and tp, tp, -64
 118:	00001117          	auipc	x2,0x1

  # mbt: put stack at top of local memory
  # mbt fix for 4KB IMEM / 4KB DMEM
  la sp, _sp
 11c:	ee410113          	addi	x2,x2,-284 # ffc <_bsg_elf_stack_ptr>
 120:	5510006f          	j	e70 <main>
  lw a1, -4(sp)    # argv
  li a2, 0         # envp = NULL
  call main
  tail exit
#else
  j main
 124:	0000006f          	j	124 <__dmem_end+0xbc>

00000128 <bsg_set_tile_x_y>:

  bsg_remote_int_ptr grp_org_x_p;
  bsg_remote_int_ptr grp_org_y_p;

  // everybody stores to tile 0,0
  bsg_remote_store(0,0,bsg_x_v,0);
 128:	200007b7          	lui	x15,0x20000
 12c:	02c00593          	li	x11,44
 130:	00b7e2b3          	or	x5,x15,x11
  bsg_remote_store(0,0,bsg_y_v,0);
 134:	02800613          	li	x12,40
  bsg_remote_store(0,0,bsg_x_v,0);
 138:	0002a023          	sw	x0,0(x5) # 3000 <_bsg_elf_stack_ptr+0x2004>
  bsg_remote_store(0,0,bsg_y_v,0);
 13c:	00c7e333          	or	x6,x15,x12
 140:	00032023          	sw	x0,0(x6)

  bsg_wait_while(*bsg_x_v < 0);
 144:	02c02383          	lw	x7,44(x0) # 2c <__bsg_x>
 148:	fe03cee3          	bltz	x7,144 <bsg_set_tile_x_y+0x1c>
  bsg_wait_while(*bsg_y_v < 0);
 14c:	02802503          	lw	x10,40(x0) # 28 <__bsg_y>
 150:	fe054ee3          	bltz	x10,14c <bsg_set_tile_x_y+0x24>

  if (!*bsg_x_v && !*bsg_y_v)
 154:	02c02803          	lw	x16,44(x0) # 2c <__bsg_x>
 158:	00081a63          	bnez	x16,16c <bsg_set_tile_x_y+0x44>
 15c:	02802883          	lw	x17,40(x0) # 28 <__bsg_y>
 160:	00089663          	bnez	x17,16c <bsg_set_tile_x_y+0x44>
    for (int x = 0; x < bsg_tiles_X; x++)
      for (int y = 0; y < bsg_tiles_Y; y++)
      {
        bsg_remote_store(x,y,bsg_x_v,x);
 164:	0002a023          	sw	x0,0(x5)
        bsg_remote_store(x,y,bsg_y_v,y);
 168:	00032023          	sw	x0,0(x6)
      }

  grp_org_x_p = bsg_remote_ptr_control( __bsg_x, __bsg_y, CSR_TGO_X );
 16c:	02802e03          	lw	x28,40(x0) # 28 <__bsg_y>
 170:	02c02e83          	lw	x29,44(x0) # 2c <__bsg_x>
 174:	20020f37          	lui	x30,0x20020
 178:	018e1f93          	slli	x31,x28,0x18
 17c:	012e9713          	slli	x14,x29,0x12
 180:	00efe7b3          	or	x15,x31,x14
 184:	004f0593          	addi	x11,x30,4 # 20020004 <_bsg_elf_vcache_size+0x1ff20004>
 188:	00b7e6b3          	or	x13,x15,x11
  grp_org_y_p = bsg_remote_ptr_control( __bsg_x, __bsg_y, CSR_TGO_Y );

  __bsg_grp_org_x  = * grp_org_x_p;
 18c:	0006a283          	lw	x5,0(x13)
  grp_org_y_p = bsg_remote_ptr_control( __bsg_x, __bsg_y, CSR_TGO_Y );
 190:	008f0613          	addi	x12,x30,8
 194:	00c7e333          	or	x6,x15,x12
  __bsg_grp_org_x  = * grp_org_x_p;
 198:	02502023          	sw	x5,32(x0) # 20 <__bsg_grp_org_x>
  __bsg_grp_org_y  = * grp_org_y_p;
 19c:	00032503          	lw	x10,0(x6)
  __bsg_id = __bsg_y * bsg_tiles_X + __bsg_x;
 1a0:	01de08b3          	add	x17,x28,x29
  __bsg_grid_dim_x = 1;
 1a4:	00100813          	li	x16,1
  __bsg_grp_org_y  = * grp_org_y_p;
 1a8:	00a02e23          	sw	x10,28(x0) # 1c <__bsg_grp_org_y>
  __bsg_id = __bsg_y * bsg_tiles_X + __bsg_x;
 1ac:	03102223          	sw	x17,36(x0) # 24 <__bsg_id>
  __bsg_grid_dim_x = 1;
 1b0:	01002c23          	sw	x16,24(x0) # 18 <__bsg_grid_dim_x>
  __bsg_grid_dim_y = 1;
 1b4:	01002a23          	sw	x16,20(x0) # 14 <__bsg_grid_dim_y>
  __bsg_tile_group_id_x = 0;
 1b8:	00002823          	sw	x0,16(x0) # 10 <__bsg_tile_group_id_x>
  __bsg_tile_group_id_y = 0;
 1bc:	00002623          	sw	x0,12(x0) # c <__bsg_tile_group_id_y>
  __bsg_tile_group_id = 0;
 1c0:	00002423          	sw	x0,8(x0) # 8 <__bsg_tile_group_id>
}
 1c4:	00008067          	ret

000001c8 <write_finish_signal>:



int write_finish_signal () 
{
  if (__bsg_id == 0) 
 1c8:	02402283          	lw	x5,36(x0) # 24 <__bsg_id>
 1cc:	00029863          	bnez	x5,1dc <write_finish_signal+0x14>
  {
     int *signal_ptr = (int *) cuda_finish_signal_addr; 
     *signal_ptr = cuda_finish_signal_val;     
 1d0:	04402383          	lw	x7,68(x0) # 44 <cuda_finish_signal_addr>
 1d4:	04002503          	lw	x10,64(x0) # 40 <cuda_finish_signal_val>
 1d8:	00a3a023          	sw	x10,0(x7)
  }
}
 1dc:	00008067          	ret

000001e0 <kernel_energy_fadd_demo>:
#include <bsg_tile_group_barrier.hpp>

bsg_barrier<bsg_tiles_X, bsg_tiles_Y> barrier;

extern "C" __attribute__ ((noinline))
int kernel_energy_fadd_demo(float *A, float *B, float *C, int N) {
 1e0:	80010113          	addi	x2,x2,-2048
 1e4:	00000793          	li	x15,0
 1e8:	00810813          	addi	x16,x2,8
 1ec:	40410893          	addi	x17,x2,1028
 1f0:	3fc00293          	li	x5,1020
  float B_spm[255];
  float A_tmp, B_tmp, C_tmp = 0.0f;
  float* A_ptr = &A_spm[0];
  float* B_ptr = &B_spm[0];
  for(uint32_t i = 0; i < 255; i++) {
    asm volatile("flw     %0,    0(%1)"   : "=f"(A_tmp) : "r"(A)     : "memory");
 1f4:	00f50733          	add	x14,x10,x15
 1f8:	00072007          	flw	f0,0(x14)
 1fc:	00f88733          	add	x14,x17,x15
 200:	00f586b3          	add	x13,x11,x15
    asm volatile("fsw     %0,    0(%1)"   :: "f"(A_tmp) , "r"(A_ptr) : "memory");
 204:	00072027          	fsw	f0,0(x14)
    asm volatile("flw     %0,    0(%1)"   : "=f"(B_tmp) : "r"(B)     : "memory");
 208:	0006a007          	flw	f0,0(x13)
    asm volatile("flw     %0,    0(%1)"   : "=f"(A_tmp) : "r"(A)     : "memory");
 20c:	00f806b3          	add	x13,x16,x15
    asm volatile("fsw     %0,    0(%1)"   :: "f"(B_tmp) , "r"(B_ptr) : "memory");
 210:	0006a027          	fsw	f0,0(x13)
  for(uint32_t i = 0; i < 255; i++) {
 214:	00478793          	addi	x15,x15,4 # 20000004 <_bsg_elf_vcache_size+0x1ff00004>
 218:	fc579ee3          	bne	x15,x5,1f4 <kernel_energy_fadd_demo+0x14>
    B_ptr++;
  }
  A_ptr = &A_spm[0];
  B_ptr = &B_spm[0];
  //------------------------------------
  bsg_saif_start();
 21c:	00100013          	li	x0,1
  //------------------------------------
  asm volatile("flw     %0,    0(%1)"   : "=f"(A_tmp) : "r"(A_ptr) : "memory");
 220:	0008a087          	flw	f1,0(x17)
  asm volatile("flw     %0,    0(%1)"   : "=f"(B_tmp) : "r"(B_ptr) : "memory");
 224:	00082107          	flw	f2,0(x16)
 228:	03000513          	li	x10,48
 22c:	00052007          	flw	f0,0(x10)
  asm volatile("fadd.s  %0, %1, %2"     : "+f"(C_tmp) : "f"(A_tmp),  "f"(B_tmp));
 230:	0020f053          	fadd.s	f0,f1,f2
  //------------------------------------
  asm volatile("flw     %0,    4(%1)"   : "=f"(A_tmp) : "r"(A_ptr) : "memory");
 234:	0048a087          	flw	f1,4(x17)
  asm volatile("flw     %0,    4(%1)"   : "=f"(B_tmp) : "r"(B_ptr) : "memory");
 238:	00482107          	flw	f2,4(x16)
  asm volatile("fadd.s  %0, %1, %2"     : "+f"(C_tmp) : "f"(A_tmp),  "f"(B_tmp));
 23c:	0020f053          	fadd.s	f0,f1,f2
  //------------------------------------
  asm volatile("flw     %0,    8(%1)"   : "=f"(A_tmp) : "r"(A_ptr) : "memory");
 240:	0088a087          	flw	f1,8(x17)
  asm volatile("flw     %0,    8(%1)"   : "=f"(B_tmp) : "r"(B_ptr) : "memory");
 244:	00882107          	flw	f2,8(x16)
  asm volatile("fadd.s  %0, %1, %2"     : "+f"(C_tmp) : "f"(A_tmp),  "f"(B_tmp));
 248:	0020f053          	fadd.s	f0,f1,f2
  //------------------------------------
  asm volatile("flw     %0,   12(%1)"   : "=f"(A_tmp) : "r"(A_ptr) : "memory");
 24c:	00c8a087          	flw	f1,12(x17)
  asm volatile("flw     %0,   12(%1)"   : "=f"(B_tmp) : "r"(B_ptr) : "memory");
 250:	00c82107          	flw	f2,12(x16)
  asm volatile("fadd.s  %0, %1, %2"     : "+f"(C_tmp) : "f"(A_tmp),  "f"(B_tmp));
 254:	0020f053          	fadd.s	f0,f1,f2
  //------------------------------------
  asm volatile("flw     %0,   16(%1)"   : "=f"(A_tmp) : "r"(A_ptr) : "memory");
 258:	0108a087          	flw	f1,16(x17)
  asm volatile("flw     %0,   16(%1)"   : "=f"(B_tmp) : "r"(B_ptr) : "memory");
 25c:	01082107          	flw	f2,16(x16)
  asm volatile("fadd.s  %0, %1, %2"     : "+f"(C_tmp) : "f"(A_tmp),  "f"(B_tmp));
 260:	0020f053          	fadd.s	f0,f1,f2
  //------------------------------------
  asm volatile("flw     %0,   20(%1)"   : "=f"(A_tmp) : "r"(A_ptr) : "memory");
 264:	0148a087          	flw	f1,20(x17)
  asm volatile("flw     %0,   20(%1)"   : "=f"(B_tmp) : "r"(B_ptr) : "memory");
 268:	01482107          	flw	f2,20(x16)
  asm volatile("fadd.s  %0, %1, %2"     : "+f"(C_tmp) : "f"(A_tmp),  "f"(B_tmp));
 26c:	0020f053          	fadd.s	f0,f1,f2
  //------------------------------------
  asm volatile("flw     %0,   24(%1)"   : "=f"(A_tmp) : "r"(A_ptr) : "memory");
 270:	0188a087          	flw	f1,24(x17)
  asm volatile("flw     %0,   24(%1)"   : "=f"(B_tmp) : "r"(B_ptr) : "memory");
 274:	01882107          	flw	f2,24(x16)
  asm volatile("fadd.s  %0, %1, %2"     : "+f"(C_tmp) : "f"(A_tmp),  "f"(B_tmp));
 278:	0020f053          	fadd.s	f0,f1,f2
  //------------------------------------
  asm volatile("flw     %0,   28(%1)"   : "=f"(A_tmp) : "r"(A_ptr) : "memory");
 27c:	01c8a087          	flw	f1,28(x17)
  asm volatile("flw     %0,   28(%1)"   : "=f"(B_tmp) : "r"(B_ptr) : "memory");
 280:	01c82107          	flw	f2,28(x16)
  asm volatile("fadd.s  %0, %1, %2"     : "+f"(C_tmp) : "f"(A_tmp),  "f"(B_tmp));
 284:	0020f053          	fadd.s	f0,f1,f2
  //------------------------------------
  asm volatile("flw     %0,   32(%1)"   : "=f"(A_tmp) : "r"(A_ptr) : "memory");
 288:	0208a087          	flw	f1,32(x17)
  asm volatile("flw     %0,   32(%1)"   : "=f"(B_tmp) : "r"(B_ptr) : "memory");
 28c:	02082107          	flw	f2,32(x16)
  asm volatile("fadd.s  %0, %1, %2"     : "+f"(C_tmp) : "f"(A_tmp),  "f"(B_tmp));
 290:	0020f053          	fadd.s	f0,f1,f2
  //------------------------------------
  asm volatile("flw     %0,   36(%1)"   : "=f"(A_tmp) : "r"(A_ptr) : "memory");
 294:	0248a087          	flw	f1,36(x17)
  asm volatile("flw     %0,   36(%1)"   : "=f"(B_tmp) : "r"(B_ptr) : "memory");
 298:	02482107          	flw	f2,36(x16)
  asm volatile("fadd.s  %0, %1, %2"     : "+f"(C_tmp) : "f"(A_tmp),  "f"(B_tmp));
 29c:	0020f053          	fadd.s	f0,f1,f2
  //------------------------------------
  asm volatile("flw     %0,   40(%1)"   : "=f"(A_tmp) : "r"(A_ptr) : "memory");
 2a0:	0288a087          	flw	f1,40(x17)
  asm volatile("flw     %0,   40(%1)"   : "=f"(B_tmp) : "r"(B_ptr) : "memory");
 2a4:	02882107          	flw	f2,40(x16)
  asm volatile("fadd.s  %0, %1, %2"     : "+f"(C_tmp) : "f"(A_tmp),  "f"(B_tmp));
 2a8:	0020f053          	fadd.s	f0,f1,f2
  //------------------------------------
  asm volatile("flw     %0,   44(%1)"   : "=f"(A_tmp) : "r"(A_ptr) : "memory");
 2ac:	02c8a087          	flw	f1,44(x17)
  asm volatile("flw     %0,   44(%1)"   : "=f"(B_tmp) : "r"(B_ptr) : "memory");
 2b0:	02c82107          	flw	f2,44(x16)
  asm volatile("fadd.s  %0, %1, %2"     : "+f"(C_tmp) : "f"(A_tmp),  "f"(B_tmp));
 2b4:	0020f053          	fadd.s	f0,f1,f2
  //------------------------------------
  asm volatile("flw     %0,   48(%1)"   : "=f"(A_tmp) : "r"(A_ptr) : "memory");
 2b8:	0308a087          	flw	f1,48(x17)
  asm volatile("flw     %0,   48(%1)"   : "=f"(B_tmp) : "r"(B_ptr) : "memory");
 2bc:	03082107          	flw	f2,48(x16)
  asm volatile("fadd.s  %0, %1, %2"     : "+f"(C_tmp) : "f"(A_tmp),  "f"(B_tmp));
 2c0:	0020f053          	fadd.s	f0,f1,f2
  //------------------------------------
  asm volatile("flw     %0,   52(%1)"   : "=f"(A_tmp) : "r"(A_ptr) : "memory");
 2c4:	0348a087          	flw	f1,52(x17)
  asm volatile("flw     %0,   52(%1)"   : "=f"(B_tmp) : "r"(B_ptr) : "memory");
 2c8:	03482107          	flw	f2,52(x16)
  asm volatile("fadd.s  %0, %1, %2"     : "+f"(C_tmp) : "f"(A_tmp),  "f"(B_tmp));
 2cc:	0020f053          	fadd.s	f0,f1,f2
  //------------------------------------
  asm volatile("flw     %0,   56(%1)"   : "=f"(A_tmp) : "r"(A_ptr) : "memory");
 2d0:	0388a087          	flw	f1,56(x17)
  asm volatile("flw     %0,   56(%1)"   : "=f"(B_tmp) : "r"(B_ptr) : "memory");
 2d4:	03882107          	flw	f2,56(x16)
  asm volatile("fadd.s  %0, %1, %2"     : "+f"(C_tmp) : "f"(A_tmp),  "f"(B_tmp));
 2d8:	0020f053          	fadd.s	f0,f1,f2
  //------------------------------------
  asm volatile("flw     %0,   60(%1)"   : "=f"(A_tmp) : "r"(A_ptr) : "memory");
 2dc:	03c8a087          	flw	f1,60(x17)
  asm volatile("flw     %0,   60(%1)"   : "=f"(B_tmp) : "r"(B_ptr) : "memory");
 2e0:	03c82107          	flw	f2,60(x16)
  asm volatile("fadd.s  %0, %1, %2"     : "+f"(C_tmp) : "f"(A_tmp),  "f"(B_tmp));
 2e4:	0020f053          	fadd.s	f0,f1,f2
  //------------------------------------
  asm volatile("flw     %0,   64(%1)"   : "=f"(A_tmp) : "r"(A_ptr) : "memory");
 2e8:	0408a087          	flw	f1,64(x17)
  asm volatile("flw     %0,   64(%1)"   : "=f"(B_tmp) : "r"(B_ptr) : "memory");
 2ec:	04082107          	flw	f2,64(x16)
  asm volatile("fadd.s  %0, %1, %2"     : "+f"(C_tmp) : "f"(A_tmp),  "f"(B_tmp));
 2f0:	0020f053          	fadd.s	f0,f1,f2
  //------------------------------------
  asm volatile("flw     %0,   68(%1)"   : "=f"(A_tmp) : "r"(A_ptr) : "memory");
 2f4:	0448a087          	flw	f1,68(x17)
  asm volatile("flw     %0,   68(%1)"   : "=f"(B_tmp) : "r"(B_ptr) : "memory");
 2f8:	04482107          	flw	f2,68(x16)
  asm volatile("fadd.s  %0, %1, %2"     : "+f"(C_tmp) : "f"(A_tmp),  "f"(B_tmp));
 2fc:	0020f053          	fadd.s	f0,f1,f2
  //------------------------------------
  asm volatile("flw     %0,   72(%1)"   : "=f"(A_tmp) : "r"(A_ptr) : "memory");
 300:	0488a087          	flw	f1,72(x17)
  asm volatile("flw     %0,   72(%1)"   : "=f"(B_tmp) : "r"(B_ptr) : "memory");
 304:	04882107          	flw	f2,72(x16)
  asm volatile("fadd.s  %0, %1, %2"     : "+f"(C_tmp) : "f"(A_tmp),  "f"(B_tmp));
 308:	0020f053          	fadd.s	f0,f1,f2
  //------------------------------------
  asm volatile("flw     %0,   76(%1)"   : "=f"(A_tmp) : "r"(A_ptr) : "memory");
 30c:	04c8a087          	flw	f1,76(x17)
  asm volatile("flw     %0,   76(%1)"   : "=f"(B_tmp) : "r"(B_ptr) : "memory");
 310:	04c82107          	flw	f2,76(x16)
  asm volatile("fadd.s  %0, %1, %2"     : "+f"(C_tmp) : "f"(A_tmp),  "f"(B_tmp));
 314:	0020f053          	fadd.s	f0,f1,f2
  //------------------------------------
  asm volatile("flw     %0,   80(%1)"   : "=f"(A_tmp) : "r"(A_ptr) : "memory");
 318:	0508a087          	flw	f1,80(x17)
  asm volatile("flw     %0,   80(%1)"   : "=f"(B_tmp) : "r"(B_ptr) : "memory");
 31c:	05082107          	flw	f2,80(x16)
  asm volatile("fadd.s  %0, %1, %2"     : "+f"(C_tmp) : "f"(A_tmp),  "f"(B_tmp));
 320:	0020f053          	fadd.s	f0,f1,f2
  //------------------------------------
  asm volatile("flw     %0,   84(%1)"   : "=f"(A_tmp) : "r"(A_ptr) : "memory");
 324:	0548a087          	flw	f1,84(x17)
  asm volatile("flw     %0,   84(%1)"   : "=f"(B_tmp) : "r"(B_ptr) : "memory");
 328:	05482107          	flw	f2,84(x16)
  asm volatile("fadd.s  %0, %1, %2"     : "+f"(C_tmp) : "f"(A_tmp),  "f"(B_tmp));
 32c:	0020f053          	fadd.s	f0,f1,f2
  //------------------------------------
  asm volatile("flw     %0,   88(%1)"   : "=f"(A_tmp) : "r"(A_ptr) : "memory");
 330:	0588a087          	flw	f1,88(x17)
  asm volatile("flw     %0,   88(%1)"   : "=f"(B_tmp) : "r"(B_ptr) : "memory");
 334:	05882107          	flw	f2,88(x16)
  asm volatile("fadd.s  %0, %1, %2"     : "+f"(C_tmp) : "f"(A_tmp),  "f"(B_tmp));
 338:	0020f053          	fadd.s	f0,f1,f2
  //------------------------------------
  asm volatile("flw     %0,   92(%1)"   : "=f"(A_tmp) : "r"(A_ptr) : "memory");
 33c:	05c8a087          	flw	f1,92(x17)
  asm volatile("flw     %0,   92(%1)"   : "=f"(B_tmp) : "r"(B_ptr) : "memory");
 340:	05c82107          	flw	f2,92(x16)
  asm volatile("fadd.s  %0, %1, %2"     : "+f"(C_tmp) : "f"(A_tmp),  "f"(B_tmp));
 344:	0020f053          	fadd.s	f0,f1,f2
  //------------------------------------
  asm volatile("flw     %0,   96(%1)"   : "=f"(A_tmp) : "r"(A_ptr) : "memory");
 348:	0608a087          	flw	f1,96(x17)
  asm volatile("flw     %0,   96(%1)"   : "=f"(B_tmp) : "r"(B_ptr) : "memory");
 34c:	06082107          	flw	f2,96(x16)
  asm volatile("fadd.s  %0, %1, %2"     : "+f"(C_tmp) : "f"(A_tmp),  "f"(B_tmp));
 350:	0020f053          	fadd.s	f0,f1,f2
  //------------------------------------
  asm volatile("flw     %0,  100(%1)"   : "=f"(A_tmp) : "r"(A_ptr) : "memory");
 354:	0648a087          	flw	f1,100(x17)
  asm volatile("flw     %0,  100(%1)"   : "=f"(B_tmp) : "r"(B_ptr) : "memory");
 358:	06482107          	flw	f2,100(x16)
  asm volatile("fadd.s  %0, %1, %2"     : "+f"(C_tmp) : "f"(A_tmp),  "f"(B_tmp));
 35c:	0020f053          	fadd.s	f0,f1,f2
  //------------------------------------
  asm volatile("flw     %0,  104(%1)"   : "=f"(A_tmp) : "r"(A_ptr) : "memory");
 360:	0688a087          	flw	f1,104(x17)
  asm volatile("flw     %0,  104(%1)"   : "=f"(B_tmp) : "r"(B_ptr) : "memory");
 364:	06882107          	flw	f2,104(x16)
  asm volatile("fadd.s  %0, %1, %2"     : "+f"(C_tmp) : "f"(A_tmp),  "f"(B_tmp));
 368:	0020f053          	fadd.s	f0,f1,f2
  //------------------------------------
  asm volatile("flw     %0,  108(%1)"   : "=f"(A_tmp) : "r"(A_ptr) : "memory");
 36c:	06c8a087          	flw	f1,108(x17)
  asm volatile("flw     %0,  108(%1)"   : "=f"(B_tmp) : "r"(B_ptr) : "memory");
 370:	06c82107          	flw	f2,108(x16)
  asm volatile("fadd.s  %0, %1, %2"     : "+f"(C_tmp) : "f"(A_tmp),  "f"(B_tmp));
 374:	0020f053          	fadd.s	f0,f1,f2
  //------------------------------------
  asm volatile("flw     %0,  112(%1)"   : "=f"(A_tmp) : "r"(A_ptr) : "memory");
 378:	0708a087          	flw	f1,112(x17)
  asm volatile("flw     %0,  112(%1)"   : "=f"(B_tmp) : "r"(B_ptr) : "memory");
 37c:	07082107          	flw	f2,112(x16)
  asm volatile("fadd.s  %0, %1, %2"     : "+f"(C_tmp) : "f"(A_tmp),  "f"(B_tmp));
 380:	0020f053          	fadd.s	f0,f1,f2
  //------------------------------------
  asm volatile("flw     %0,  116(%1)"   : "=f"(A_tmp) : "r"(A_ptr) : "memory");
 384:	0748a087          	flw	f1,116(x17)
  asm volatile("flw     %0,  116(%1)"   : "=f"(B_tmp) : "r"(B_ptr) : "memory");
 388:	07482107          	flw	f2,116(x16)
  asm volatile("fadd.s  %0, %1, %2"     : "+f"(C_tmp) : "f"(A_tmp),  "f"(B_tmp));
 38c:	0020f053          	fadd.s	f0,f1,f2
  //------------------------------------
  asm volatile("flw     %0,  120(%1)"   : "=f"(A_tmp) : "r"(A_ptr) : "memory");
 390:	0788a087          	flw	f1,120(x17)
  asm volatile("flw     %0,  120(%1)"   : "=f"(B_tmp) : "r"(B_ptr) : "memory");
 394:	07882107          	flw	f2,120(x16)
  asm volatile("fadd.s  %0, %1, %2"     : "+f"(C_tmp) : "f"(A_tmp),  "f"(B_tmp));
 398:	0020f053          	fadd.s	f0,f1,f2
  //------------------------------------
  asm volatile("flw     %0,  124(%1)"   : "=f"(A_tmp) : "r"(A_ptr) : "memory");
 39c:	07c8a087          	flw	f1,124(x17)
  asm volatile("flw     %0,  124(%1)"   : "=f"(B_tmp) : "r"(B_ptr) : "memory");
 3a0:	07c82107          	flw	f2,124(x16)
  asm volatile("fadd.s  %0, %1, %2"     : "+f"(C_tmp) : "f"(A_tmp),  "f"(B_tmp));
 3a4:	0020f053          	fadd.s	f0,f1,f2
  //------------------------------------
  asm volatile("flw     %0,  128(%1)"   : "=f"(A_tmp) : "r"(A_ptr) : "memory");
 3a8:	0808a087          	flw	f1,128(x17)
  asm volatile("flw     %0,  128(%1)"   : "=f"(B_tmp) : "r"(B_ptr) : "memory");
 3ac:	08082107          	flw	f2,128(x16)
  asm volatile("fadd.s  %0, %1, %2"     : "+f"(C_tmp) : "f"(A_tmp),  "f"(B_tmp));
 3b0:	0020f053          	fadd.s	f0,f1,f2
  //------------------------------------
  asm volatile("flw     %0,  132(%1)"   : "=f"(A_tmp) : "r"(A_ptr) : "memory");
 3b4:	0848a087          	flw	f1,132(x17)
  asm volatile("flw     %0,  132(%1)"   : "=f"(B_tmp) : "r"(B_ptr) : "memory");
 3b8:	08482107          	flw	f2,132(x16)
  asm volatile("fadd.s  %0, %1, %2"     : "+f"(C_tmp) : "f"(A_tmp),  "f"(B_tmp));
 3bc:	0020f053          	fadd.s	f0,f1,f2
  //------------------------------------
  asm volatile("flw     %0,  136(%1)"   : "=f"(A_tmp) : "r"(A_ptr) : "memory");
 3c0:	0888a087          	flw	f1,136(x17)
  asm volatile("flw     %0,  136(%1)"   : "=f"(B_tmp) : "r"(B_ptr) : "memory");
 3c4:	08882107          	flw	f2,136(x16)
  asm volatile("fadd.s  %0, %1, %2"     : "+f"(C_tmp) : "f"(A_tmp),  "f"(B_tmp));
 3c8:	0020f053          	fadd.s	f0,f1,f2
  //------------------------------------
  asm volatile("flw     %0,  140(%1)"   : "=f"(A_tmp) : "r"(A_ptr) : "memory");
 3cc:	08c8a087          	flw	f1,140(x17)
  asm volatile("flw     %0,  140(%1)"   : "=f"(B_tmp) : "r"(B_ptr) : "memory");
 3d0:	08c82107          	flw	f2,140(x16)
  asm volatile("fadd.s  %0, %1, %2"     : "+f"(C_tmp) : "f"(A_tmp),  "f"(B_tmp));
 3d4:	0020f053          	fadd.s	f0,f1,f2
  //------------------------------------
  asm volatile("flw     %0,  144(%1)"   : "=f"(A_tmp) : "r"(A_ptr) : "memory");
 3d8:	0908a087          	flw	f1,144(x17)
  asm volatile("flw     %0,  144(%1)"   : "=f"(B_tmp) : "r"(B_ptr) : "memory");
 3dc:	09082107          	flw	f2,144(x16)
  asm volatile("fadd.s  %0, %1, %2"     : "+f"(C_tmp) : "f"(A_tmp),  "f"(B_tmp));
 3e0:	0020f053          	fadd.s	f0,f1,f2
  //------------------------------------
  asm volatile("flw     %0,  148(%1)"   : "=f"(A_tmp) : "r"(A_ptr) : "memory");
 3e4:	0948a087          	flw	f1,148(x17)
  asm volatile("flw     %0,  148(%1)"   : "=f"(B_tmp) : "r"(B_ptr) : "memory");
 3e8:	09482107          	flw	f2,148(x16)
  asm volatile("fadd.s  %0, %1, %2"     : "+f"(C_tmp) : "f"(A_tmp),  "f"(B_tmp));
 3ec:	0020f053          	fadd.s	f0,f1,f2
  //------------------------------------
  asm volatile("flw     %0,  152(%1)"   : "=f"(A_tmp) : "r"(A_ptr) : "memory");
 3f0:	0988a087          	flw	f1,152(x17)
  asm volatile("flw     %0,  152(%1)"   : "=f"(B_tmp) : "r"(B_ptr) : "memory");
 3f4:	09882107          	flw	f2,152(x16)
  asm volatile("fadd.s  %0, %1, %2"     : "+f"(C_tmp) : "f"(A_tmp),  "f"(B_tmp));
 3f8:	0020f053          	fadd.s	f0,f1,f2
  //------------------------------------
  asm volatile("flw     %0,  156(%1)"   : "=f"(A_tmp) : "r"(A_ptr) : "memory");
 3fc:	09c8a087          	flw	f1,156(x17)
  asm volatile("flw     %0,  156(%1)"   : "=f"(B_tmp) : "r"(B_ptr) : "memory");
 400:	09c82107          	flw	f2,156(x16)
  asm volatile("fadd.s  %0, %1, %2"     : "+f"(C_tmp) : "f"(A_tmp),  "f"(B_tmp));
 404:	0020f053          	fadd.s	f0,f1,f2
  //------------------------------------
  asm volatile("flw     %0,  160(%1)"   : "=f"(A_tmp) : "r"(A_ptr) : "memory");
 408:	0a08a087          	flw	f1,160(x17)
  asm volatile("flw     %0,  160(%1)"   : "=f"(B_tmp) : "r"(B_ptr) : "memory");
 40c:	0a082107          	flw	f2,160(x16)
  asm volatile("fadd.s  %0, %1, %2"     : "+f"(C_tmp) : "f"(A_tmp),  "f"(B_tmp));
 410:	0020f053          	fadd.s	f0,f1,f2
  //------------------------------------
  asm volatile("flw     %0,  164(%1)"   : "=f"(A_tmp) : "r"(A_ptr) : "memory");
 414:	0a48a087          	flw	f1,164(x17)
  asm volatile("flw     %0,  164(%1)"   : "=f"(B_tmp) : "r"(B_ptr) : "memory");
 418:	0a482107          	flw	f2,164(x16)
  asm volatile("fadd.s  %0, %1, %2"     : "+f"(C_tmp) : "f"(A_tmp),  "f"(B_tmp));
 41c:	0020f053          	fadd.s	f0,f1,f2
  //------------------------------------
  asm volatile("flw     %0,  168(%1)"   : "=f"(A_tmp) : "r"(A_ptr) : "memory");
 420:	0a88a087          	flw	f1,168(x17)
  asm volatile("flw     %0,  168(%1)"   : "=f"(B_tmp) : "r"(B_ptr) : "memory");
 424:	0a882107          	flw	f2,168(x16)
  asm volatile("fadd.s  %0, %1, %2"     : "+f"(C_tmp) : "f"(A_tmp),  "f"(B_tmp));
 428:	0020f053          	fadd.s	f0,f1,f2
  //------------------------------------
  asm volatile("flw     %0,  172(%1)"   : "=f"(A_tmp) : "r"(A_ptr) : "memory");
 42c:	0ac8a087          	flw	f1,172(x17)
  asm volatile("flw     %0,  172(%1)"   : "=f"(B_tmp) : "r"(B_ptr) : "memory");
 430:	0ac82107          	flw	f2,172(x16)
  asm volatile("fadd.s  %0, %1, %2"     : "+f"(C_tmp) : "f"(A_tmp),  "f"(B_tmp));
 434:	0020f053          	fadd.s	f0,f1,f2
  //------------------------------------
  asm volatile("flw     %0,  176(%1)"   : "=f"(A_tmp) : "r"(A_ptr) : "memory");
 438:	0b08a087          	flw	f1,176(x17)
  asm volatile("flw     %0,  176(%1)"   : "=f"(B_tmp) : "r"(B_ptr) : "memory");
 43c:	0b082107          	flw	f2,176(x16)
  asm volatile("fadd.s  %0, %1, %2"     : "+f"(C_tmp) : "f"(A_tmp),  "f"(B_tmp));
 440:	0020f053          	fadd.s	f0,f1,f2
  //------------------------------------
  asm volatile("flw     %0,  180(%1)"   : "=f"(A_tmp) : "r"(A_ptr) : "memory");
 444:	0b48a087          	flw	f1,180(x17)
  asm volatile("flw     %0,  180(%1)"   : "=f"(B_tmp) : "r"(B_ptr) : "memory");
 448:	0b482107          	flw	f2,180(x16)
  asm volatile("fadd.s  %0, %1, %2"     : "+f"(C_tmp) : "f"(A_tmp),  "f"(B_tmp));
 44c:	0020f053          	fadd.s	f0,f1,f2
  //------------------------------------
  asm volatile("flw     %0,  184(%1)"   : "=f"(A_tmp) : "r"(A_ptr) : "memory");
 450:	0b88a087          	flw	f1,184(x17)
  asm volatile("flw     %0,  184(%1)"   : "=f"(B_tmp) : "r"(B_ptr) : "memory");
 454:	0b882107          	flw	f2,184(x16)
  asm volatile("fadd.s  %0, %1, %2"     : "+f"(C_tmp) : "f"(A_tmp),  "f"(B_tmp));
 458:	0020f053          	fadd.s	f0,f1,f2
  //------------------------------------
  asm volatile("flw     %0,  188(%1)"   : "=f"(A_tmp) : "r"(A_ptr) : "memory");
 45c:	0bc8a087          	flw	f1,188(x17)
  asm volatile("flw     %0,  188(%1)"   : "=f"(B_tmp) : "r"(B_ptr) : "memory");
 460:	0bc82107          	flw	f2,188(x16)
  asm volatile("fadd.s  %0, %1, %2"     : "+f"(C_tmp) : "f"(A_tmp),  "f"(B_tmp));
 464:	0020f053          	fadd.s	f0,f1,f2
  //------------------------------------
  asm volatile("flw     %0,  192(%1)"   : "=f"(A_tmp) : "r"(A_ptr) : "memory");
 468:	0c08a087          	flw	f1,192(x17)
  asm volatile("flw     %0,  192(%1)"   : "=f"(B_tmp) : "r"(B_ptr) : "memory");
 46c:	0c082107          	flw	f2,192(x16)
  asm volatile("fadd.s  %0, %1, %2"     : "+f"(C_tmp) : "f"(A_tmp),  "f"(B_tmp));
 470:	0020f053          	fadd.s	f0,f1,f2
  //------------------------------------
  asm volatile("flw     %0,  196(%1)"   : "=f"(A_tmp) : "r"(A_ptr) : "memory");
 474:	0c48a087          	flw	f1,196(x17)
  asm volatile("flw     %0,  196(%1)"   : "=f"(B_tmp) : "r"(B_ptr) : "memory");
 478:	0c482107          	flw	f2,196(x16)
  asm volatile("fadd.s  %0, %1, %2"     : "+f"(C_tmp) : "f"(A_tmp),  "f"(B_tmp));
 47c:	0020f053          	fadd.s	f0,f1,f2
  //------------------------------------
  asm volatile("flw     %0,  200(%1)"   : "=f"(A_tmp) : "r"(A_ptr) : "memory");
 480:	0c88a087          	flw	f1,200(x17)
  asm volatile("flw     %0,  200(%1)"   : "=f"(B_tmp) : "r"(B_ptr) : "memory");
 484:	0c882107          	flw	f2,200(x16)
  asm volatile("fadd.s  %0, %1, %2"     : "+f"(C_tmp) : "f"(A_tmp),  "f"(B_tmp));
 488:	0020f053          	fadd.s	f0,f1,f2
  //------------------------------------
  asm volatile("flw     %0,  204(%1)"   : "=f"(A_tmp) : "r"(A_ptr) : "memory");
 48c:	0cc8a087          	flw	f1,204(x17)
  asm volatile("flw     %0,  204(%1)"   : "=f"(B_tmp) : "r"(B_ptr) : "memory");
 490:	0cc82107          	flw	f2,204(x16)
  asm volatile("fadd.s  %0, %1, %2"     : "+f"(C_tmp) : "f"(A_tmp),  "f"(B_tmp));
 494:	0020f053          	fadd.s	f0,f1,f2
  //------------------------------------
  asm volatile("flw     %0,  208(%1)"   : "=f"(A_tmp) : "r"(A_ptr) : "memory");
 498:	0d08a087          	flw	f1,208(x17)
  asm volatile("flw     %0,  208(%1)"   : "=f"(B_tmp) : "r"(B_ptr) : "memory");
 49c:	0d082107          	flw	f2,208(x16)
  asm volatile("fadd.s  %0, %1, %2"     : "+f"(C_tmp) : "f"(A_tmp),  "f"(B_tmp));
 4a0:	0020f053          	fadd.s	f0,f1,f2
  //------------------------------------
  asm volatile("flw     %0,  212(%1)"   : "=f"(A_tmp) : "r"(A_ptr) : "memory");
 4a4:	0d48a087          	flw	f1,212(x17)
  asm volatile("flw     %0,  212(%1)"   : "=f"(B_tmp) : "r"(B_ptr) : "memory");
 4a8:	0d482107          	flw	f2,212(x16)
  asm volatile("fadd.s  %0, %1, %2"     : "+f"(C_tmp) : "f"(A_tmp),  "f"(B_tmp));
 4ac:	0020f053          	fadd.s	f0,f1,f2
  //------------------------------------
  asm volatile("flw     %0,  216(%1)"   : "=f"(A_tmp) : "r"(A_ptr) : "memory");
 4b0:	0d88a087          	flw	f1,216(x17)
  asm volatile("flw     %0,  216(%1)"   : "=f"(B_tmp) : "r"(B_ptr) : "memory");
 4b4:	0d882107          	flw	f2,216(x16)
  asm volatile("fadd.s  %0, %1, %2"     : "+f"(C_tmp) : "f"(A_tmp),  "f"(B_tmp));
 4b8:	0020f053          	fadd.s	f0,f1,f2
  //------------------------------------
  asm volatile("flw     %0,  220(%1)"   : "=f"(A_tmp) : "r"(A_ptr) : "memory");
 4bc:	0dc8a087          	flw	f1,220(x17)
  asm volatile("flw     %0,  220(%1)"   : "=f"(B_tmp) : "r"(B_ptr) : "memory");
 4c0:	0dc82107          	flw	f2,220(x16)
  asm volatile("fadd.s  %0, %1, %2"     : "+f"(C_tmp) : "f"(A_tmp),  "f"(B_tmp));
 4c4:	0020f053          	fadd.s	f0,f1,f2
  //------------------------------------
  asm volatile("flw     %0,  224(%1)"   : "=f"(A_tmp) : "r"(A_ptr) : "memory");
 4c8:	0e08a087          	flw	f1,224(x17)
  asm volatile("flw     %0,  224(%1)"   : "=f"(B_tmp) : "r"(B_ptr) : "memory");
 4cc:	0e082107          	flw	f2,224(x16)
  asm volatile("fadd.s  %0, %1, %2"     : "+f"(C_tmp) : "f"(A_tmp),  "f"(B_tmp));
 4d0:	0020f053          	fadd.s	f0,f1,f2
  //------------------------------------
  asm volatile("flw     %0,  228(%1)"   : "=f"(A_tmp) : "r"(A_ptr) : "memory");
 4d4:	0e48a087          	flw	f1,228(x17)
  asm volatile("flw     %0,  228(%1)"   : "=f"(B_tmp) : "r"(B_ptr) : "memory");
 4d8:	0e482107          	flw	f2,228(x16)
  asm volatile("fadd.s  %0, %1, %2"     : "+f"(C_tmp) : "f"(A_tmp),  "f"(B_tmp));
 4dc:	0020f053          	fadd.s	f0,f1,f2
  //------------------------------------
  asm volatile("flw     %0,  232(%1)"   : "=f"(A_tmp) : "r"(A_ptr) : "memory");
 4e0:	0e88a087          	flw	f1,232(x17)
  asm volatile("flw     %0,  232(%1)"   : "=f"(B_tmp) : "r"(B_ptr) : "memory");
 4e4:	0e882107          	flw	f2,232(x16)
  asm volatile("fadd.s  %0, %1, %2"     : "+f"(C_tmp) : "f"(A_tmp),  "f"(B_tmp));
 4e8:	0020f053          	fadd.s	f0,f1,f2
  //------------------------------------
  asm volatile("flw     %0,  236(%1)"   : "=f"(A_tmp) : "r"(A_ptr) : "memory");
 4ec:	0ec8a087          	flw	f1,236(x17)
  asm volatile("flw     %0,  236(%1)"   : "=f"(B_tmp) : "r"(B_ptr) : "memory");
 4f0:	0ec82107          	flw	f2,236(x16)
  asm volatile("fadd.s  %0, %1, %2"     : "+f"(C_tmp) : "f"(A_tmp),  "f"(B_tmp));
 4f4:	0020f053          	fadd.s	f0,f1,f2
  //------------------------------------
  asm volatile("flw     %0,  240(%1)"   : "=f"(A_tmp) : "r"(A_ptr) : "memory");
 4f8:	0f08a087          	flw	f1,240(x17)
  asm volatile("flw     %0,  240(%1)"   : "=f"(B_tmp) : "r"(B_ptr) : "memory");
 4fc:	0f082107          	flw	f2,240(x16)
  asm volatile("fadd.s  %0, %1, %2"     : "+f"(C_tmp) : "f"(A_tmp),  "f"(B_tmp));
 500:	0020f053          	fadd.s	f0,f1,f2
  //------------------------------------
  asm volatile("flw     %0,  244(%1)"   : "=f"(A_tmp) : "r"(A_ptr) : "memory");
 504:	0f48a087          	flw	f1,244(x17)
  asm volatile("flw     %0,  244(%1)"   : "=f"(B_tmp) : "r"(B_ptr) : "memory");
 508:	0f482107          	flw	f2,244(x16)
  asm volatile("fadd.s  %0, %1, %2"     : "+f"(C_tmp) : "f"(A_tmp),  "f"(B_tmp));
 50c:	0020f053          	fadd.s	f0,f1,f2
  //------------------------------------
  asm volatile("flw     %0,  248(%1)"   : "=f"(A_tmp) : "r"(A_ptr) : "memory");
 510:	0f88a087          	flw	f1,248(x17)
  asm volatile("flw     %0,  248(%1)"   : "=f"(B_tmp) : "r"(B_ptr) : "memory");
 514:	0f882107          	flw	f2,248(x16)
  asm volatile("fadd.s  %0, %1, %2"     : "+f"(C_tmp) : "f"(A_tmp),  "f"(B_tmp));
 518:	0020f053          	fadd.s	f0,f1,f2
  //------------------------------------
  asm volatile("flw     %0,  252(%1)"   : "=f"(A_tmp) : "r"(A_ptr) : "memory");
 51c:	0fc8a087          	flw	f1,252(x17)
  asm volatile("flw     %0,  252(%1)"   : "=f"(B_tmp) : "r"(B_ptr) : "memory");
 520:	0fc82107          	flw	f2,252(x16)
  asm volatile("fadd.s  %0, %1, %2"     : "+f"(C_tmp) : "f"(A_tmp),  "f"(B_tmp));
 524:	0020f053          	fadd.s	f0,f1,f2
  //------------------------------------
  asm volatile("flw     %0,  256(%1)"   : "=f"(A_tmp) : "r"(A_ptr) : "memory");
 528:	1008a087          	flw	f1,256(x17)
  asm volatile("flw     %0,  256(%1)"   : "=f"(B_tmp) : "r"(B_ptr) : "memory");
 52c:	10082107          	flw	f2,256(x16)
  asm volatile("fadd.s  %0, %1, %2"     : "+f"(C_tmp) : "f"(A_tmp),  "f"(B_tmp));
 530:	0020f053          	fadd.s	f0,f1,f2
  //------------------------------------
  asm volatile("flw     %0,  260(%1)"   : "=f"(A_tmp) : "r"(A_ptr) : "memory");
 534:	1048a087          	flw	f1,260(x17)
  asm volatile("flw     %0,  260(%1)"   : "=f"(B_tmp) : "r"(B_ptr) : "memory");
 538:	10482107          	flw	f2,260(x16)
  asm volatile("fadd.s  %0, %1, %2"     : "+f"(C_tmp) : "f"(A_tmp),  "f"(B_tmp));
 53c:	0020f053          	fadd.s	f0,f1,f2
  //------------------------------------
  asm volatile("flw     %0,  264(%1)"   : "=f"(A_tmp) : "r"(A_ptr) : "memory");
 540:	1088a087          	flw	f1,264(x17)
  asm volatile("flw     %0,  264(%1)"   : "=f"(B_tmp) : "r"(B_ptr) : "memory");
 544:	10882107          	flw	f2,264(x16)
  asm volatile("fadd.s  %0, %1, %2"     : "+f"(C_tmp) : "f"(A_tmp),  "f"(B_tmp));
 548:	0020f053          	fadd.s	f0,f1,f2
  //------------------------------------
  asm volatile("flw     %0,  268(%1)"   : "=f"(A_tmp) : "r"(A_ptr) : "memory");
 54c:	10c8a087          	flw	f1,268(x17)
  asm volatile("flw     %0,  268(%1)"   : "=f"(B_tmp) : "r"(B_ptr) : "memory");
 550:	10c82107          	flw	f2,268(x16)
  asm volatile("fadd.s  %0, %1, %2"     : "+f"(C_tmp) : "f"(A_tmp),  "f"(B_tmp));
 554:	0020f053          	fadd.s	f0,f1,f2
  //------------------------------------
  asm volatile("flw     %0,  272(%1)"   : "=f"(A_tmp) : "r"(A_ptr) : "memory");
 558:	1108a087          	flw	f1,272(x17)
  asm volatile("flw     %0,  272(%1)"   : "=f"(B_tmp) : "r"(B_ptr) : "memory");
 55c:	11082107          	flw	f2,272(x16)
  asm volatile("fadd.s  %0, %1, %2"     : "+f"(C_tmp) : "f"(A_tmp),  "f"(B_tmp));
 560:	0020f053          	fadd.s	f0,f1,f2
  //------------------------------------
  asm volatile("flw     %0,  276(%1)"   : "=f"(A_tmp) : "r"(A_ptr) : "memory");
 564:	1148a087          	flw	f1,276(x17)
  asm volatile("flw     %0,  276(%1)"   : "=f"(B_tmp) : "r"(B_ptr) : "memory");
 568:	11482107          	flw	f2,276(x16)
  asm volatile("fadd.s  %0, %1, %2"     : "+f"(C_tmp) : "f"(A_tmp),  "f"(B_tmp));
 56c:	0020f053          	fadd.s	f0,f1,f2
  //------------------------------------
  asm volatile("flw     %0,  280(%1)"   : "=f"(A_tmp) : "r"(A_ptr) : "memory");
 570:	1188a087          	flw	f1,280(x17)
  asm volatile("flw     %0,  280(%1)"   : "=f"(B_tmp) : "r"(B_ptr) : "memory");
 574:	11882107          	flw	f2,280(x16)
  asm volatile("fadd.s  %0, %1, %2"     : "+f"(C_tmp) : "f"(A_tmp),  "f"(B_tmp));
 578:	0020f053          	fadd.s	f0,f1,f2
  //------------------------------------
  asm volatile("flw     %0,  284(%1)"   : "=f"(A_tmp) : "r"(A_ptr) : "memory");
 57c:	11c8a087          	flw	f1,284(x17)
  asm volatile("flw     %0,  284(%1)"   : "=f"(B_tmp) : "r"(B_ptr) : "memory");
 580:	11c82107          	flw	f2,284(x16)
  asm volatile("fadd.s  %0, %1, %2"     : "+f"(C_tmp) : "f"(A_tmp),  "f"(B_tmp));
 584:	0020f053          	fadd.s	f0,f1,f2
  //------------------------------------
  asm volatile("flw     %0,  288(%1)"   : "=f"(A_tmp) : "r"(A_ptr) : "memory");
 588:	1208a087          	flw	f1,288(x17)
  asm volatile("flw     %0,  288(%1)"   : "=f"(B_tmp) : "r"(B_ptr) : "memory");
 58c:	12082107          	flw	f2,288(x16)
  asm volatile("fadd.s  %0, %1, %2"     : "+f"(C_tmp) : "f"(A_tmp),  "f"(B_tmp));
 590:	0020f053          	fadd.s	f0,f1,f2
  //------------------------------------
  asm volatile("flw     %0,  292(%1)"   : "=f"(A_tmp) : "r"(A_ptr) : "memory");
 594:	1248a087          	flw	f1,292(x17)
  asm volatile("flw     %0,  292(%1)"   : "=f"(B_tmp) : "r"(B_ptr) : "memory");
 598:	12482107          	flw	f2,292(x16)
  asm volatile("fadd.s  %0, %1, %2"     : "+f"(C_tmp) : "f"(A_tmp),  "f"(B_tmp));
 59c:	0020f053          	fadd.s	f0,f1,f2
  //------------------------------------
  asm volatile("flw     %0,  296(%1)"   : "=f"(A_tmp) : "r"(A_ptr) : "memory");
 5a0:	1288a087          	flw	f1,296(x17)
  asm volatile("flw     %0,  296(%1)"   : "=f"(B_tmp) : "r"(B_ptr) : "memory");
 5a4:	12882107          	flw	f2,296(x16)
  asm volatile("fadd.s  %0, %1, %2"     : "+f"(C_tmp) : "f"(A_tmp),  "f"(B_tmp));
 5a8:	0020f053          	fadd.s	f0,f1,f2
  //------------------------------------
  asm volatile("flw     %0,  300(%1)"   : "=f"(A_tmp) : "r"(A_ptr) : "memory");
 5ac:	12c8a087          	flw	f1,300(x17)
  asm volatile("flw     %0,  300(%1)"   : "=f"(B_tmp) : "r"(B_ptr) : "memory");
 5b0:	12c82107          	flw	f2,300(x16)
  asm volatile("fadd.s  %0, %1, %2"     : "+f"(C_tmp) : "f"(A_tmp),  "f"(B_tmp));
 5b4:	0020f053          	fadd.s	f0,f1,f2
  //------------------------------------
  asm volatile("flw     %0,  304(%1)"   : "=f"(A_tmp) : "r"(A_ptr) : "memory");
 5b8:	1308a087          	flw	f1,304(x17)
  asm volatile("flw     %0,  304(%1)"   : "=f"(B_tmp) : "r"(B_ptr) : "memory");
 5bc:	13082107          	flw	f2,304(x16)
  asm volatile("fadd.s  %0, %1, %2"     : "+f"(C_tmp) : "f"(A_tmp),  "f"(B_tmp));
 5c0:	0020f053          	fadd.s	f0,f1,f2
  //------------------------------------
  asm volatile("flw     %0,  308(%1)"   : "=f"(A_tmp) : "r"(A_ptr) : "memory");
 5c4:	1348a087          	flw	f1,308(x17)
  asm volatile("flw     %0,  308(%1)"   : "=f"(B_tmp) : "r"(B_ptr) : "memory");
 5c8:	13482107          	flw	f2,308(x16)
  asm volatile("fadd.s  %0, %1, %2"     : "+f"(C_tmp) : "f"(A_tmp),  "f"(B_tmp));
 5cc:	0020f053          	fadd.s	f0,f1,f2
  //------------------------------------
  asm volatile("flw     %0,  312(%1)"   : "=f"(A_tmp) : "r"(A_ptr) : "memory");
 5d0:	1388a087          	flw	f1,312(x17)
  asm volatile("flw     %0,  312(%1)"   : "=f"(B_tmp) : "r"(B_ptr) : "memory");
 5d4:	13882107          	flw	f2,312(x16)
  asm volatile("fadd.s  %0, %1, %2"     : "+f"(C_tmp) : "f"(A_tmp),  "f"(B_tmp));
 5d8:	0020f053          	fadd.s	f0,f1,f2
  //------------------------------------
  asm volatile("flw     %0,  316(%1)"   : "=f"(A_tmp) : "r"(A_ptr) : "memory");
 5dc:	13c8a087          	flw	f1,316(x17)
  asm volatile("flw     %0,  316(%1)"   : "=f"(B_tmp) : "r"(B_ptr) : "memory");
 5e0:	13c82107          	flw	f2,316(x16)
  asm volatile("fadd.s  %0, %1, %2"     : "+f"(C_tmp) : "f"(A_tmp),  "f"(B_tmp));
 5e4:	0020f053          	fadd.s	f0,f1,f2
  //------------------------------------
  asm volatile("flw     %0,  320(%1)"   : "=f"(A_tmp) : "r"(A_ptr) : "memory");
 5e8:	1408a087          	flw	f1,320(x17)
  asm volatile("flw     %0,  320(%1)"   : "=f"(B_tmp) : "r"(B_ptr) : "memory");
 5ec:	14082107          	flw	f2,320(x16)
  asm volatile("fadd.s  %0, %1, %2"     : "+f"(C_tmp) : "f"(A_tmp),  "f"(B_tmp));
 5f0:	0020f053          	fadd.s	f0,f1,f2
  //------------------------------------
  asm volatile("flw     %0,  324(%1)"   : "=f"(A_tmp) : "r"(A_ptr) : "memory");
 5f4:	1448a087          	flw	f1,324(x17)
  asm volatile("flw     %0,  324(%1)"   : "=f"(B_tmp) : "r"(B_ptr) : "memory");
 5f8:	14482107          	flw	f2,324(x16)
  asm volatile("fadd.s  %0, %1, %2"     : "+f"(C_tmp) : "f"(A_tmp),  "f"(B_tmp));
 5fc:	0020f053          	fadd.s	f0,f1,f2
  //------------------------------------
  asm volatile("flw     %0,  328(%1)"   : "=f"(A_tmp) : "r"(A_ptr) : "memory");
 600:	1488a087          	flw	f1,328(x17)
  asm volatile("flw     %0,  328(%1)"   : "=f"(B_tmp) : "r"(B_ptr) : "memory");
 604:	14882107          	flw	f2,328(x16)
  asm volatile("fadd.s  %0, %1, %2"     : "+f"(C_tmp) : "f"(A_tmp),  "f"(B_tmp));
 608:	0020f053          	fadd.s	f0,f1,f2
  //------------------------------------
  asm volatile("flw     %0,  332(%1)"   : "=f"(A_tmp) : "r"(A_ptr) : "memory");
 60c:	14c8a087          	flw	f1,332(x17)
  asm volatile("flw     %0,  332(%1)"   : "=f"(B_tmp) : "r"(B_ptr) : "memory");
 610:	14c82107          	flw	f2,332(x16)
  asm volatile("fadd.s  %0, %1, %2"     : "+f"(C_tmp) : "f"(A_tmp),  "f"(B_tmp));
 614:	0020f053          	fadd.s	f0,f1,f2
  //------------------------------------
  asm volatile("flw     %0,  336(%1)"   : "=f"(A_tmp) : "r"(A_ptr) : "memory");
 618:	1508a087          	flw	f1,336(x17)
  asm volatile("flw     %0,  336(%1)"   : "=f"(B_tmp) : "r"(B_ptr) : "memory");
 61c:	15082107          	flw	f2,336(x16)
  asm volatile("fadd.s  %0, %1, %2"     : "+f"(C_tmp) : "f"(A_tmp),  "f"(B_tmp));
 620:	0020f053          	fadd.s	f0,f1,f2
  //------------------------------------
  asm volatile("flw     %0,  340(%1)"   : "=f"(A_tmp) : "r"(A_ptr) : "memory");
 624:	1548a087          	flw	f1,340(x17)
  asm volatile("flw     %0,  340(%1)"   : "=f"(B_tmp) : "r"(B_ptr) : "memory");
 628:	15482107          	flw	f2,340(x16)
  asm volatile("fadd.s  %0, %1, %2"     : "+f"(C_tmp) : "f"(A_tmp),  "f"(B_tmp));
 62c:	0020f053          	fadd.s	f0,f1,f2
  //------------------------------------
  asm volatile("flw     %0,  344(%1)"   : "=f"(A_tmp) : "r"(A_ptr) : "memory");
 630:	1588a087          	flw	f1,344(x17)
  asm volatile("flw     %0,  344(%1)"   : "=f"(B_tmp) : "r"(B_ptr) : "memory");
 634:	15882107          	flw	f2,344(x16)
  asm volatile("fadd.s  %0, %1, %2"     : "+f"(C_tmp) : "f"(A_tmp),  "f"(B_tmp));
 638:	0020f053          	fadd.s	f0,f1,f2
  //------------------------------------
  asm volatile("flw     %0,  348(%1)"   : "=f"(A_tmp) : "r"(A_ptr) : "memory");
 63c:	15c8a087          	flw	f1,348(x17)
  asm volatile("flw     %0,  348(%1)"   : "=f"(B_tmp) : "r"(B_ptr) : "memory");
 640:	15c82107          	flw	f2,348(x16)
  asm volatile("fadd.s  %0, %1, %2"     : "+f"(C_tmp) : "f"(A_tmp),  "f"(B_tmp));
 644:	0020f053          	fadd.s	f0,f1,f2
  //------------------------------------
  asm volatile("flw     %0,  352(%1)"   : "=f"(A_tmp) : "r"(A_ptr) : "memory");
 648:	1608a087          	flw	f1,352(x17)
  asm volatile("flw     %0,  352(%1)"   : "=f"(B_tmp) : "r"(B_ptr) : "memory");
 64c:	16082107          	flw	f2,352(x16)
  asm volatile("fadd.s  %0, %1, %2"     : "+f"(C_tmp) : "f"(A_tmp),  "f"(B_tmp));
 650:	0020f053          	fadd.s	f0,f1,f2
  //------------------------------------
  asm volatile("flw     %0,  356(%1)"   : "=f"(A_tmp) : "r"(A_ptr) : "memory");
 654:	1648a087          	flw	f1,356(x17)
  asm volatile("flw     %0,  356(%1)"   : "=f"(B_tmp) : "r"(B_ptr) : "memory");
 658:	16482107          	flw	f2,356(x16)
  asm volatile("fadd.s  %0, %1, %2"     : "+f"(C_tmp) : "f"(A_tmp),  "f"(B_tmp));
 65c:	0020f053          	fadd.s	f0,f1,f2
  //------------------------------------
  asm volatile("flw     %0,  360(%1)"   : "=f"(A_tmp) : "r"(A_ptr) : "memory");
 660:	1688a087          	flw	f1,360(x17)
  asm volatile("flw     %0,  360(%1)"   : "=f"(B_tmp) : "r"(B_ptr) : "memory");
 664:	16882107          	flw	f2,360(x16)
  asm volatile("fadd.s  %0, %1, %2"     : "+f"(C_tmp) : "f"(A_tmp),  "f"(B_tmp));
 668:	0020f053          	fadd.s	f0,f1,f2
  //------------------------------------
  asm volatile("flw     %0,  364(%1)"   : "=f"(A_tmp) : "r"(A_ptr) : "memory");
 66c:	16c8a087          	flw	f1,364(x17)
  asm volatile("flw     %0,  364(%1)"   : "=f"(B_tmp) : "r"(B_ptr) : "memory");
 670:	16c82107          	flw	f2,364(x16)
  asm volatile("fadd.s  %0, %1, %2"     : "+f"(C_tmp) : "f"(A_tmp),  "f"(B_tmp));
 674:	0020f053          	fadd.s	f0,f1,f2
  //------------------------------------
  asm volatile("flw     %0,  368(%1)"   : "=f"(A_tmp) : "r"(A_ptr) : "memory");
 678:	1708a087          	flw	f1,368(x17)
  asm volatile("flw     %0,  368(%1)"   : "=f"(B_tmp) : "r"(B_ptr) : "memory");
 67c:	17082107          	flw	f2,368(x16)
  asm volatile("fadd.s  %0, %1, %2"     : "+f"(C_tmp) : "f"(A_tmp),  "f"(B_tmp));
 680:	0020f053          	fadd.s	f0,f1,f2
  //------------------------------------
  asm volatile("flw     %0,  372(%1)"   : "=f"(A_tmp) : "r"(A_ptr) : "memory");
 684:	1748a087          	flw	f1,372(x17)
  asm volatile("flw     %0,  372(%1)"   : "=f"(B_tmp) : "r"(B_ptr) : "memory");
 688:	17482107          	flw	f2,372(x16)
  asm volatile("fadd.s  %0, %1, %2"     : "+f"(C_tmp) : "f"(A_tmp),  "f"(B_tmp));
 68c:	0020f053          	fadd.s	f0,f1,f2
  //------------------------------------
  asm volatile("flw     %0,  376(%1)"   : "=f"(A_tmp) : "r"(A_ptr) : "memory");
 690:	1788a087          	flw	f1,376(x17)
  asm volatile("flw     %0,  376(%1)"   : "=f"(B_tmp) : "r"(B_ptr) : "memory");
 694:	17882107          	flw	f2,376(x16)
  asm volatile("fadd.s  %0, %1, %2"     : "+f"(C_tmp) : "f"(A_tmp),  "f"(B_tmp));
 698:	0020f053          	fadd.s	f0,f1,f2
  //------------------------------------
  asm volatile("flw     %0,  380(%1)"   : "=f"(A_tmp) : "r"(A_ptr) : "memory");
 69c:	17c8a087          	flw	f1,380(x17)
  asm volatile("flw     %0,  380(%1)"   : "=f"(B_tmp) : "r"(B_ptr) : "memory");
 6a0:	17c82107          	flw	f2,380(x16)
  asm volatile("fadd.s  %0, %1, %2"     : "+f"(C_tmp) : "f"(A_tmp),  "f"(B_tmp));
 6a4:	0020f053          	fadd.s	f0,f1,f2
  //------------------------------------
  asm volatile("flw     %0,  384(%1)"   : "=f"(A_tmp) : "r"(A_ptr) : "memory");
 6a8:	1808a087          	flw	f1,384(x17)
  asm volatile("flw     %0,  384(%1)"   : "=f"(B_tmp) : "r"(B_ptr) : "memory");
 6ac:	18082107          	flw	f2,384(x16)
  asm volatile("fadd.s  %0, %1, %2"     : "+f"(C_tmp) : "f"(A_tmp),  "f"(B_tmp));
 6b0:	0020f053          	fadd.s	f0,f1,f2
  //------------------------------------
  asm volatile("flw     %0,  388(%1)"   : "=f"(A_tmp) : "r"(A_ptr) : "memory");
 6b4:	1848a087          	flw	f1,388(x17)
  asm volatile("flw     %0,  388(%1)"   : "=f"(B_tmp) : "r"(B_ptr) : "memory");
 6b8:	18482107          	flw	f2,388(x16)
  asm volatile("fadd.s  %0, %1, %2"     : "+f"(C_tmp) : "f"(A_tmp),  "f"(B_tmp));
 6bc:	0020f053          	fadd.s	f0,f1,f2
  //------------------------------------
  asm volatile("flw     %0,  392(%1)"   : "=f"(A_tmp) : "r"(A_ptr) : "memory");
 6c0:	1888a087          	flw	f1,392(x17)
  asm volatile("flw     %0,  392(%1)"   : "=f"(B_tmp) : "r"(B_ptr) : "memory");
 6c4:	18882107          	flw	f2,392(x16)
  asm volatile("fadd.s  %0, %1, %2"     : "+f"(C_tmp) : "f"(A_tmp),  "f"(B_tmp));
 6c8:	0020f053          	fadd.s	f0,f1,f2
  //------------------------------------
  asm volatile("flw     %0,  396(%1)"   : "=f"(A_tmp) : "r"(A_ptr) : "memory");
 6cc:	18c8a087          	flw	f1,396(x17)
  asm volatile("flw     %0,  396(%1)"   : "=f"(B_tmp) : "r"(B_ptr) : "memory");
 6d0:	18c82107          	flw	f2,396(x16)
  asm volatile("fadd.s  %0, %1, %2"     : "+f"(C_tmp) : "f"(A_tmp),  "f"(B_tmp));
 6d4:	0020f053          	fadd.s	f0,f1,f2
  //------------------------------------
  asm volatile("flw     %0,  400(%1)"   : "=f"(A_tmp) : "r"(A_ptr) : "memory");
 6d8:	1908a087          	flw	f1,400(x17)
  asm volatile("flw     %0,  400(%1)"   : "=f"(B_tmp) : "r"(B_ptr) : "memory");
 6dc:	19082107          	flw	f2,400(x16)
  asm volatile("fadd.s  %0, %1, %2"     : "+f"(C_tmp) : "f"(A_tmp),  "f"(B_tmp));
 6e0:	0020f053          	fadd.s	f0,f1,f2
  //------------------------------------
  asm volatile("flw     %0,  404(%1)"   : "=f"(A_tmp) : "r"(A_ptr) : "memory");
 6e4:	1948a087          	flw	f1,404(x17)
  asm volatile("flw     %0,  404(%1)"   : "=f"(B_tmp) : "r"(B_ptr) : "memory");
 6e8:	19482107          	flw	f2,404(x16)
  asm volatile("fadd.s  %0, %1, %2"     : "+f"(C_tmp) : "f"(A_tmp),  "f"(B_tmp));
 6ec:	0020f053          	fadd.s	f0,f1,f2
  //------------------------------------
  asm volatile("flw     %0,  408(%1)"   : "=f"(A_tmp) : "r"(A_ptr) : "memory");
 6f0:	1988a087          	flw	f1,408(x17)
  asm volatile("flw     %0,  408(%1)"   : "=f"(B_tmp) : "r"(B_ptr) : "memory");
 6f4:	19882107          	flw	f2,408(x16)
  asm volatile("fadd.s  %0, %1, %2"     : "+f"(C_tmp) : "f"(A_tmp),  "f"(B_tmp));
 6f8:	0020f053          	fadd.s	f0,f1,f2
  //------------------------------------
  asm volatile("flw     %0,  412(%1)"   : "=f"(A_tmp) : "r"(A_ptr) : "memory");
 6fc:	19c8a087          	flw	f1,412(x17)
  asm volatile("flw     %0,  412(%1)"   : "=f"(B_tmp) : "r"(B_ptr) : "memory");
 700:	19c82107          	flw	f2,412(x16)
  asm volatile("fadd.s  %0, %1, %2"     : "+f"(C_tmp) : "f"(A_tmp),  "f"(B_tmp));
 704:	0020f053          	fadd.s	f0,f1,f2
  //------------------------------------
  asm volatile("flw     %0,  416(%1)"   : "=f"(A_tmp) : "r"(A_ptr) : "memory");
 708:	1a08a087          	flw	f1,416(x17)
  asm volatile("flw     %0,  416(%1)"   : "=f"(B_tmp) : "r"(B_ptr) : "memory");
 70c:	1a082107          	flw	f2,416(x16)
  asm volatile("fadd.s  %0, %1, %2"     : "+f"(C_tmp) : "f"(A_tmp),  "f"(B_tmp));
 710:	0020f053          	fadd.s	f0,f1,f2
  //------------------------------------
  asm volatile("flw     %0,  420(%1)"   : "=f"(A_tmp) : "r"(A_ptr) : "memory");
 714:	1a48a087          	flw	f1,420(x17)
  asm volatile("flw     %0,  420(%1)"   : "=f"(B_tmp) : "r"(B_ptr) : "memory");
 718:	1a482107          	flw	f2,420(x16)
  asm volatile("fadd.s  %0, %1, %2"     : "+f"(C_tmp) : "f"(A_tmp),  "f"(B_tmp));
 71c:	0020f053          	fadd.s	f0,f1,f2
  //------------------------------------
  asm volatile("flw     %0,  424(%1)"   : "=f"(A_tmp) : "r"(A_ptr) : "memory");
 720:	1a88a087          	flw	f1,424(x17)
  asm volatile("flw     %0,  424(%1)"   : "=f"(B_tmp) : "r"(B_ptr) : "memory");
 724:	1a882107          	flw	f2,424(x16)
  asm volatile("fadd.s  %0, %1, %2"     : "+f"(C_tmp) : "f"(A_tmp),  "f"(B_tmp));
 728:	0020f053          	fadd.s	f0,f1,f2
  //------------------------------------
  asm volatile("flw     %0,  428(%1)"   : "=f"(A_tmp) : "r"(A_ptr) : "memory");
 72c:	1ac8a087          	flw	f1,428(x17)
  asm volatile("flw     %0,  428(%1)"   : "=f"(B_tmp) : "r"(B_ptr) : "memory");
 730:	1ac82107          	flw	f2,428(x16)
  asm volatile("fadd.s  %0, %1, %2"     : "+f"(C_tmp) : "f"(A_tmp),  "f"(B_tmp));
 734:	0020f053          	fadd.s	f0,f1,f2
  //------------------------------------
  asm volatile("flw     %0,  432(%1)"   : "=f"(A_tmp) : "r"(A_ptr) : "memory");
 738:	1b08a087          	flw	f1,432(x17)
  asm volatile("flw     %0,  432(%1)"   : "=f"(B_tmp) : "r"(B_ptr) : "memory");
 73c:	1b082107          	flw	f2,432(x16)
  asm volatile("fadd.s  %0, %1, %2"     : "+f"(C_tmp) : "f"(A_tmp),  "f"(B_tmp));
 740:	0020f053          	fadd.s	f0,f1,f2
  //------------------------------------
  asm volatile("flw     %0,  436(%1)"   : "=f"(A_tmp) : "r"(A_ptr) : "memory");
 744:	1b48a087          	flw	f1,436(x17)
  asm volatile("flw     %0,  436(%1)"   : "=f"(B_tmp) : "r"(B_ptr) : "memory");
 748:	1b482107          	flw	f2,436(x16)
  asm volatile("fadd.s  %0, %1, %2"     : "+f"(C_tmp) : "f"(A_tmp),  "f"(B_tmp));
 74c:	0020f053          	fadd.s	f0,f1,f2
  //------------------------------------
  asm volatile("flw     %0,  440(%1)"   : "=f"(A_tmp) : "r"(A_ptr) : "memory");
 750:	1b88a087          	flw	f1,440(x17)
  asm volatile("flw     %0,  440(%1)"   : "=f"(B_tmp) : "r"(B_ptr) : "memory");
 754:	1b882107          	flw	f2,440(x16)
  asm volatile("fadd.s  %0, %1, %2"     : "+f"(C_tmp) : "f"(A_tmp),  "f"(B_tmp));
 758:	0020f053          	fadd.s	f0,f1,f2
  //------------------------------------
  asm volatile("flw     %0,  444(%1)"   : "=f"(A_tmp) : "r"(A_ptr) : "memory");
 75c:	1bc8a087          	flw	f1,444(x17)
  asm volatile("flw     %0,  444(%1)"   : "=f"(B_tmp) : "r"(B_ptr) : "memory");
 760:	1bc82107          	flw	f2,444(x16)
  asm volatile("fadd.s  %0, %1, %2"     : "+f"(C_tmp) : "f"(A_tmp),  "f"(B_tmp));
 764:	0020f053          	fadd.s	f0,f1,f2
  //------------------------------------
  asm volatile("flw     %0,  448(%1)"   : "=f"(A_tmp) : "r"(A_ptr) : "memory");
 768:	1c08a087          	flw	f1,448(x17)
  asm volatile("flw     %0,  448(%1)"   : "=f"(B_tmp) : "r"(B_ptr) : "memory");
 76c:	1c082107          	flw	f2,448(x16)
  asm volatile("fadd.s  %0, %1, %2"     : "+f"(C_tmp) : "f"(A_tmp),  "f"(B_tmp));
 770:	0020f053          	fadd.s	f0,f1,f2
  //------------------------------------
  asm volatile("flw     %0,  452(%1)"   : "=f"(A_tmp) : "r"(A_ptr) : "memory");
 774:	1c48a087          	flw	f1,452(x17)
  asm volatile("flw     %0,  452(%1)"   : "=f"(B_tmp) : "r"(B_ptr) : "memory");
 778:	1c482107          	flw	f2,452(x16)
  asm volatile("fadd.s  %0, %1, %2"     : "+f"(C_tmp) : "f"(A_tmp),  "f"(B_tmp));
 77c:	0020f053          	fadd.s	f0,f1,f2
  //------------------------------------
  asm volatile("flw     %0,  456(%1)"   : "=f"(A_tmp) : "r"(A_ptr) : "memory");
 780:	1c88a087          	flw	f1,456(x17)
  asm volatile("flw     %0,  456(%1)"   : "=f"(B_tmp) : "r"(B_ptr) : "memory");
 784:	1c882107          	flw	f2,456(x16)
  asm volatile("fadd.s  %0, %1, %2"     : "+f"(C_tmp) : "f"(A_tmp),  "f"(B_tmp));
 788:	0020f053          	fadd.s	f0,f1,f2
  //------------------------------------
  asm volatile("flw     %0,  460(%1)"   : "=f"(A_tmp) : "r"(A_ptr) : "memory");
 78c:	1cc8a087          	flw	f1,460(x17)
  asm volatile("flw     %0,  460(%1)"   : "=f"(B_tmp) : "r"(B_ptr) : "memory");
 790:	1cc82107          	flw	f2,460(x16)
  asm volatile("fadd.s  %0, %1, %2"     : "+f"(C_tmp) : "f"(A_tmp),  "f"(B_tmp));
 794:	0020f053          	fadd.s	f0,f1,f2
  //------------------------------------
  asm volatile("flw     %0,  464(%1)"   : "=f"(A_tmp) : "r"(A_ptr) : "memory");
 798:	1d08a087          	flw	f1,464(x17)
  asm volatile("flw     %0,  464(%1)"   : "=f"(B_tmp) : "r"(B_ptr) : "memory");
 79c:	1d082107          	flw	f2,464(x16)
  asm volatile("fadd.s  %0, %1, %2"     : "+f"(C_tmp) : "f"(A_tmp),  "f"(B_tmp));
 7a0:	0020f053          	fadd.s	f0,f1,f2
  //------------------------------------
  asm volatile("flw     %0,  468(%1)"   : "=f"(A_tmp) : "r"(A_ptr) : "memory");
 7a4:	1d48a087          	flw	f1,468(x17)
  asm volatile("flw     %0,  468(%1)"   : "=f"(B_tmp) : "r"(B_ptr) : "memory");
 7a8:	1d482107          	flw	f2,468(x16)
  asm volatile("fadd.s  %0, %1, %2"     : "+f"(C_tmp) : "f"(A_tmp),  "f"(B_tmp));
 7ac:	0020f053          	fadd.s	f0,f1,f2
  //------------------------------------
  asm volatile("flw     %0,  472(%1)"   : "=f"(A_tmp) : "r"(A_ptr) : "memory");
 7b0:	1d88a087          	flw	f1,472(x17)
  asm volatile("flw     %0,  472(%1)"   : "=f"(B_tmp) : "r"(B_ptr) : "memory");
 7b4:	1d882107          	flw	f2,472(x16)
  asm volatile("fadd.s  %0, %1, %2"     : "+f"(C_tmp) : "f"(A_tmp),  "f"(B_tmp));
 7b8:	0020f053          	fadd.s	f0,f1,f2
  //------------------------------------
  asm volatile("flw     %0,  476(%1)"   : "=f"(A_tmp) : "r"(A_ptr) : "memory");
 7bc:	1dc8a087          	flw	f1,476(x17)
  asm volatile("flw     %0,  476(%1)"   : "=f"(B_tmp) : "r"(B_ptr) : "memory");
 7c0:	1dc82107          	flw	f2,476(x16)
  asm volatile("fadd.s  %0, %1, %2"     : "+f"(C_tmp) : "f"(A_tmp),  "f"(B_tmp));
 7c4:	0020f053          	fadd.s	f0,f1,f2
  //------------------------------------
  asm volatile("flw     %0,  480(%1)"   : "=f"(A_tmp) : "r"(A_ptr) : "memory");
 7c8:	1e08a087          	flw	f1,480(x17)
  asm volatile("flw     %0,  480(%1)"   : "=f"(B_tmp) : "r"(B_ptr) : "memory");
 7cc:	1e082107          	flw	f2,480(x16)
  asm volatile("fadd.s  %0, %1, %2"     : "+f"(C_tmp) : "f"(A_tmp),  "f"(B_tmp));
 7d0:	0020f053          	fadd.s	f0,f1,f2
  //------------------------------------
  asm volatile("flw     %0,  484(%1)"   : "=f"(A_tmp) : "r"(A_ptr) : "memory");
 7d4:	1e48a087          	flw	f1,484(x17)
  asm volatile("flw     %0,  484(%1)"   : "=f"(B_tmp) : "r"(B_ptr) : "memory");
 7d8:	1e482107          	flw	f2,484(x16)
  asm volatile("fadd.s  %0, %1, %2"     : "+f"(C_tmp) : "f"(A_tmp),  "f"(B_tmp));
 7dc:	0020f053          	fadd.s	f0,f1,f2
  //------------------------------------
  asm volatile("flw     %0,  488(%1)"   : "=f"(A_tmp) : "r"(A_ptr) : "memory");
 7e0:	1e88a087          	flw	f1,488(x17)
  asm volatile("flw     %0,  488(%1)"   : "=f"(B_tmp) : "r"(B_ptr) : "memory");
 7e4:	1e882107          	flw	f2,488(x16)
  asm volatile("fadd.s  %0, %1, %2"     : "+f"(C_tmp) : "f"(A_tmp),  "f"(B_tmp));
 7e8:	0020f053          	fadd.s	f0,f1,f2
  //------------------------------------
  asm volatile("flw     %0,  492(%1)"   : "=f"(A_tmp) : "r"(A_ptr) : "memory");
 7ec:	1ec8a087          	flw	f1,492(x17)
  asm volatile("flw     %0,  492(%1)"   : "=f"(B_tmp) : "r"(B_ptr) : "memory");
 7f0:	1ec82107          	flw	f2,492(x16)
  asm volatile("fadd.s  %0, %1, %2"     : "+f"(C_tmp) : "f"(A_tmp),  "f"(B_tmp));
 7f4:	0020f053          	fadd.s	f0,f1,f2
  //------------------------------------
  asm volatile("flw     %0,  496(%1)"   : "=f"(A_tmp) : "r"(A_ptr) : "memory");
 7f8:	1f08a087          	flw	f1,496(x17)
  asm volatile("flw     %0,  496(%1)"   : "=f"(B_tmp) : "r"(B_ptr) : "memory");
 7fc:	1f082107          	flw	f2,496(x16)
  asm volatile("fadd.s  %0, %1, %2"     : "+f"(C_tmp) : "f"(A_tmp),  "f"(B_tmp));
 800:	0020f053          	fadd.s	f0,f1,f2
  //------------------------------------
  asm volatile("flw     %0,  500(%1)"   : "=f"(A_tmp) : "r"(A_ptr) : "memory");
 804:	1f48a087          	flw	f1,500(x17)
  asm volatile("flw     %0,  500(%1)"   : "=f"(B_tmp) : "r"(B_ptr) : "memory");
 808:	1f482107          	flw	f2,500(x16)
  asm volatile("fadd.s  %0, %1, %2"     : "+f"(C_tmp) : "f"(A_tmp),  "f"(B_tmp));
 80c:	0020f053          	fadd.s	f0,f1,f2
  //------------------------------------
  asm volatile("flw     %0,  504(%1)"   : "=f"(A_tmp) : "r"(A_ptr) : "memory");
 810:	1f88a087          	flw	f1,504(x17)
  asm volatile("flw     %0,  504(%1)"   : "=f"(B_tmp) : "r"(B_ptr) : "memory");
 814:	1f882107          	flw	f2,504(x16)
  asm volatile("fadd.s  %0, %1, %2"     : "+f"(C_tmp) : "f"(A_tmp),  "f"(B_tmp));
 818:	0020f053          	fadd.s	f0,f1,f2
  //------------------------------------
  asm volatile("flw     %0,  508(%1)"   : "=f"(A_tmp) : "r"(A_ptr) : "memory");
 81c:	1fc8a087          	flw	f1,508(x17)
  asm volatile("flw     %0,  508(%1)"   : "=f"(B_tmp) : "r"(B_ptr) : "memory");
 820:	1fc82107          	flw	f2,508(x16)
  asm volatile("fadd.s  %0, %1, %2"     : "+f"(C_tmp) : "f"(A_tmp),  "f"(B_tmp));
 824:	0020f053          	fadd.s	f0,f1,f2
  //------------------------------------
  asm volatile("flw     %0,  512(%1)"   : "=f"(A_tmp) : "r"(A_ptr) : "memory");
 828:	2008a087          	flw	f1,512(x17)
  asm volatile("flw     %0,  512(%1)"   : "=f"(B_tmp) : "r"(B_ptr) : "memory");
 82c:	20082107          	flw	f2,512(x16)
  asm volatile("fadd.s  %0, %1, %2"     : "+f"(C_tmp) : "f"(A_tmp),  "f"(B_tmp));
 830:	0020f053          	fadd.s	f0,f1,f2
  //------------------------------------
  asm volatile("flw     %0,  516(%1)"   : "=f"(A_tmp) : "r"(A_ptr) : "memory");
 834:	2048a087          	flw	f1,516(x17)
  asm volatile("flw     %0,  516(%1)"   : "=f"(B_tmp) : "r"(B_ptr) : "memory");
 838:	20482107          	flw	f2,516(x16)
  asm volatile("fadd.s  %0, %1, %2"     : "+f"(C_tmp) : "f"(A_tmp),  "f"(B_tmp));
 83c:	0020f053          	fadd.s	f0,f1,f2
  //------------------------------------
  asm volatile("flw     %0,  520(%1)"   : "=f"(A_tmp) : "r"(A_ptr) : "memory");
 840:	2088a087          	flw	f1,520(x17)
  asm volatile("flw     %0,  520(%1)"   : "=f"(B_tmp) : "r"(B_ptr) : "memory");
 844:	20882107          	flw	f2,520(x16)
  asm volatile("fadd.s  %0, %1, %2"     : "+f"(C_tmp) : "f"(A_tmp),  "f"(B_tmp));
 848:	0020f053          	fadd.s	f0,f1,f2
  //------------------------------------
  asm volatile("flw     %0,  524(%1)"   : "=f"(A_tmp) : "r"(A_ptr) : "memory");
 84c:	20c8a087          	flw	f1,524(x17)
  asm volatile("flw     %0,  524(%1)"   : "=f"(B_tmp) : "r"(B_ptr) : "memory");
 850:	20c82107          	flw	f2,524(x16)
  asm volatile("fadd.s  %0, %1, %2"     : "+f"(C_tmp) : "f"(A_tmp),  "f"(B_tmp));
 854:	0020f053          	fadd.s	f0,f1,f2
  //------------------------------------
  asm volatile("flw     %0,  528(%1)"   : "=f"(A_tmp) : "r"(A_ptr) : "memory");
 858:	2108a087          	flw	f1,528(x17)
  asm volatile("flw     %0,  528(%1)"   : "=f"(B_tmp) : "r"(B_ptr) : "memory");
 85c:	21082107          	flw	f2,528(x16)
  asm volatile("fadd.s  %0, %1, %2"     : "+f"(C_tmp) : "f"(A_tmp),  "f"(B_tmp));
 860:	0020f053          	fadd.s	f0,f1,f2
  //------------------------------------
  asm volatile("flw     %0,  532(%1)"   : "=f"(A_tmp) : "r"(A_ptr) : "memory");
 864:	2148a087          	flw	f1,532(x17)
  asm volatile("flw     %0,  532(%1)"   : "=f"(B_tmp) : "r"(B_ptr) : "memory");
 868:	21482107          	flw	f2,532(x16)
  asm volatile("fadd.s  %0, %1, %2"     : "+f"(C_tmp) : "f"(A_tmp),  "f"(B_tmp));
 86c:	0020f053          	fadd.s	f0,f1,f2
  //------------------------------------
  asm volatile("flw     %0,  536(%1)"   : "=f"(A_tmp) : "r"(A_ptr) : "memory");
 870:	2188a087          	flw	f1,536(x17)
  asm volatile("flw     %0,  536(%1)"   : "=f"(B_tmp) : "r"(B_ptr) : "memory");
 874:	21882107          	flw	f2,536(x16)
  asm volatile("fadd.s  %0, %1, %2"     : "+f"(C_tmp) : "f"(A_tmp),  "f"(B_tmp));
 878:	0020f053          	fadd.s	f0,f1,f2
  //------------------------------------
  asm volatile("flw     %0,  540(%1)"   : "=f"(A_tmp) : "r"(A_ptr) : "memory");
 87c:	21c8a087          	flw	f1,540(x17)
  asm volatile("flw     %0,  540(%1)"   : "=f"(B_tmp) : "r"(B_ptr) : "memory");
 880:	21c82107          	flw	f2,540(x16)
  asm volatile("fadd.s  %0, %1, %2"     : "+f"(C_tmp) : "f"(A_tmp),  "f"(B_tmp));
 884:	0020f053          	fadd.s	f0,f1,f2
  //------------------------------------
  asm volatile("flw     %0,  544(%1)"   : "=f"(A_tmp) : "r"(A_ptr) : "memory");
 888:	2208a087          	flw	f1,544(x17)
  asm volatile("flw     %0,  544(%1)"   : "=f"(B_tmp) : "r"(B_ptr) : "memory");
 88c:	22082107          	flw	f2,544(x16)
  asm volatile("fadd.s  %0, %1, %2"     : "+f"(C_tmp) : "f"(A_tmp),  "f"(B_tmp));
 890:	0020f053          	fadd.s	f0,f1,f2
  //------------------------------------
  asm volatile("flw     %0,  548(%1)"   : "=f"(A_tmp) : "r"(A_ptr) : "memory");
 894:	2248a087          	flw	f1,548(x17)
  asm volatile("flw     %0,  548(%1)"   : "=f"(B_tmp) : "r"(B_ptr) : "memory");
 898:	22482107          	flw	f2,548(x16)
  asm volatile("fadd.s  %0, %1, %2"     : "+f"(C_tmp) : "f"(A_tmp),  "f"(B_tmp));
 89c:	0020f053          	fadd.s	f0,f1,f2
  //------------------------------------
  asm volatile("flw     %0,  552(%1)"   : "=f"(A_tmp) : "r"(A_ptr) : "memory");
 8a0:	2288a087          	flw	f1,552(x17)
  asm volatile("flw     %0,  552(%1)"   : "=f"(B_tmp) : "r"(B_ptr) : "memory");
 8a4:	22882107          	flw	f2,552(x16)
  asm volatile("fadd.s  %0, %1, %2"     : "+f"(C_tmp) : "f"(A_tmp),  "f"(B_tmp));
 8a8:	0020f053          	fadd.s	f0,f1,f2
  //------------------------------------
  asm volatile("flw     %0,  556(%1)"   : "=f"(A_tmp) : "r"(A_ptr) : "memory");
 8ac:	22c8a087          	flw	f1,556(x17)
  asm volatile("flw     %0,  556(%1)"   : "=f"(B_tmp) : "r"(B_ptr) : "memory");
 8b0:	22c82107          	flw	f2,556(x16)
  asm volatile("fadd.s  %0, %1, %2"     : "+f"(C_tmp) : "f"(A_tmp),  "f"(B_tmp));
 8b4:	0020f053          	fadd.s	f0,f1,f2
  //------------------------------------
  asm volatile("flw     %0,  560(%1)"   : "=f"(A_tmp) : "r"(A_ptr) : "memory");
 8b8:	2308a087          	flw	f1,560(x17)
  asm volatile("flw     %0,  560(%1)"   : "=f"(B_tmp) : "r"(B_ptr) : "memory");
 8bc:	23082107          	flw	f2,560(x16)
  asm volatile("fadd.s  %0, %1, %2"     : "+f"(C_tmp) : "f"(A_tmp),  "f"(B_tmp));
 8c0:	0020f053          	fadd.s	f0,f1,f2
  //------------------------------------
  asm volatile("flw     %0,  564(%1)"   : "=f"(A_tmp) : "r"(A_ptr) : "memory");
 8c4:	2348a087          	flw	f1,564(x17)
  asm volatile("flw     %0,  564(%1)"   : "=f"(B_tmp) : "r"(B_ptr) : "memory");
 8c8:	23482107          	flw	f2,564(x16)
  asm volatile("fadd.s  %0, %1, %2"     : "+f"(C_tmp) : "f"(A_tmp),  "f"(B_tmp));
 8cc:	0020f053          	fadd.s	f0,f1,f2
  //------------------------------------
  asm volatile("flw     %0,  568(%1)"   : "=f"(A_tmp) : "r"(A_ptr) : "memory");
 8d0:	2388a087          	flw	f1,568(x17)
  asm volatile("flw     %0,  568(%1)"   : "=f"(B_tmp) : "r"(B_ptr) : "memory");
 8d4:	23882107          	flw	f2,568(x16)
  asm volatile("fadd.s  %0, %1, %2"     : "+f"(C_tmp) : "f"(A_tmp),  "f"(B_tmp));
 8d8:	0020f053          	fadd.s	f0,f1,f2
  //------------------------------------
  asm volatile("flw     %0,  572(%1)"   : "=f"(A_tmp) : "r"(A_ptr) : "memory");
 8dc:	23c8a087          	flw	f1,572(x17)
  asm volatile("flw     %0,  572(%1)"   : "=f"(B_tmp) : "r"(B_ptr) : "memory");
 8e0:	23c82107          	flw	f2,572(x16)
  asm volatile("fadd.s  %0, %1, %2"     : "+f"(C_tmp) : "f"(A_tmp),  "f"(B_tmp));
 8e4:	0020f053          	fadd.s	f0,f1,f2
  //------------------------------------
  asm volatile("flw     %0,  576(%1)"   : "=f"(A_tmp) : "r"(A_ptr) : "memory");
 8e8:	2408a087          	flw	f1,576(x17)
  asm volatile("flw     %0,  576(%1)"   : "=f"(B_tmp) : "r"(B_ptr) : "memory");
 8ec:	24082107          	flw	f2,576(x16)
  asm volatile("fadd.s  %0, %1, %2"     : "+f"(C_tmp) : "f"(A_tmp),  "f"(B_tmp));
 8f0:	0020f053          	fadd.s	f0,f1,f2
  //------------------------------------
  asm volatile("flw     %0,  580(%1)"   : "=f"(A_tmp) : "r"(A_ptr) : "memory");
 8f4:	2448a087          	flw	f1,580(x17)
  asm volatile("flw     %0,  580(%1)"   : "=f"(B_tmp) : "r"(B_ptr) : "memory");
 8f8:	24482107          	flw	f2,580(x16)
  asm volatile("fadd.s  %0, %1, %2"     : "+f"(C_tmp) : "f"(A_tmp),  "f"(B_tmp));
 8fc:	0020f053          	fadd.s	f0,f1,f2
  //------------------------------------
  asm volatile("flw     %0,  584(%1)"   : "=f"(A_tmp) : "r"(A_ptr) : "memory");
 900:	2488a087          	flw	f1,584(x17)
  asm volatile("flw     %0,  584(%1)"   : "=f"(B_tmp) : "r"(B_ptr) : "memory");
 904:	24882107          	flw	f2,584(x16)
  asm volatile("fadd.s  %0, %1, %2"     : "+f"(C_tmp) : "f"(A_tmp),  "f"(B_tmp));
 908:	0020f053          	fadd.s	f0,f1,f2
  //------------------------------------
  asm volatile("flw     %0,  588(%1)"   : "=f"(A_tmp) : "r"(A_ptr) : "memory");
 90c:	24c8a087          	flw	f1,588(x17)
  asm volatile("flw     %0,  588(%1)"   : "=f"(B_tmp) : "r"(B_ptr) : "memory");
 910:	24c82107          	flw	f2,588(x16)
  asm volatile("fadd.s  %0, %1, %2"     : "+f"(C_tmp) : "f"(A_tmp),  "f"(B_tmp));
 914:	0020f053          	fadd.s	f0,f1,f2
  //------------------------------------
  asm volatile("flw     %0,  592(%1)"   : "=f"(A_tmp) : "r"(A_ptr) : "memory");
 918:	2508a087          	flw	f1,592(x17)
  asm volatile("flw     %0,  592(%1)"   : "=f"(B_tmp) : "r"(B_ptr) : "memory");
 91c:	25082107          	flw	f2,592(x16)
  asm volatile("fadd.s  %0, %1, %2"     : "+f"(C_tmp) : "f"(A_tmp),  "f"(B_tmp));
 920:	0020f053          	fadd.s	f0,f1,f2
  //------------------------------------
  asm volatile("flw     %0,  596(%1)"   : "=f"(A_tmp) : "r"(A_ptr) : "memory");
 924:	2548a087          	flw	f1,596(x17)
  asm volatile("flw     %0,  596(%1)"   : "=f"(B_tmp) : "r"(B_ptr) : "memory");
 928:	25482107          	flw	f2,596(x16)
  asm volatile("fadd.s  %0, %1, %2"     : "+f"(C_tmp) : "f"(A_tmp),  "f"(B_tmp));
 92c:	0020f053          	fadd.s	f0,f1,f2
  //------------------------------------
  asm volatile("flw     %0,  600(%1)"   : "=f"(A_tmp) : "r"(A_ptr) : "memory");
 930:	2588a087          	flw	f1,600(x17)
  asm volatile("flw     %0,  600(%1)"   : "=f"(B_tmp) : "r"(B_ptr) : "memory");
 934:	25882107          	flw	f2,600(x16)
  asm volatile("fadd.s  %0, %1, %2"     : "+f"(C_tmp) : "f"(A_tmp),  "f"(B_tmp));
 938:	0020f053          	fadd.s	f0,f1,f2
  //------------------------------------
  asm volatile("flw     %0,  604(%1)"   : "=f"(A_tmp) : "r"(A_ptr) : "memory");
 93c:	25c8a087          	flw	f1,604(x17)
  asm volatile("flw     %0,  604(%1)"   : "=f"(B_tmp) : "r"(B_ptr) : "memory");
 940:	25c82107          	flw	f2,604(x16)
  asm volatile("fadd.s  %0, %1, %2"     : "+f"(C_tmp) : "f"(A_tmp),  "f"(B_tmp));
 944:	0020f053          	fadd.s	f0,f1,f2
  //------------------------------------
  asm volatile("flw     %0,  608(%1)"   : "=f"(A_tmp) : "r"(A_ptr) : "memory");
 948:	2608a087          	flw	f1,608(x17)
  asm volatile("flw     %0,  608(%1)"   : "=f"(B_tmp) : "r"(B_ptr) : "memory");
 94c:	26082107          	flw	f2,608(x16)
  asm volatile("fadd.s  %0, %1, %2"     : "+f"(C_tmp) : "f"(A_tmp),  "f"(B_tmp));
 950:	0020f053          	fadd.s	f0,f1,f2
  //------------------------------------
  asm volatile("flw     %0,  612(%1)"   : "=f"(A_tmp) : "r"(A_ptr) : "memory");
 954:	2648a087          	flw	f1,612(x17)
  asm volatile("flw     %0,  612(%1)"   : "=f"(B_tmp) : "r"(B_ptr) : "memory");
 958:	26482107          	flw	f2,612(x16)
  asm volatile("fadd.s  %0, %1, %2"     : "+f"(C_tmp) : "f"(A_tmp),  "f"(B_tmp));
 95c:	0020f053          	fadd.s	f0,f1,f2
  //------------------------------------
  asm volatile("flw     %0,  616(%1)"   : "=f"(A_tmp) : "r"(A_ptr) : "memory");
 960:	2688a087          	flw	f1,616(x17)
  asm volatile("flw     %0,  616(%1)"   : "=f"(B_tmp) : "r"(B_ptr) : "memory");
 964:	26882107          	flw	f2,616(x16)
  asm volatile("fadd.s  %0, %1, %2"     : "+f"(C_tmp) : "f"(A_tmp),  "f"(B_tmp));
 968:	0020f053          	fadd.s	f0,f1,f2
  //------------------------------------
  asm volatile("flw     %0,  620(%1)"   : "=f"(A_tmp) : "r"(A_ptr) : "memory");
 96c:	26c8a087          	flw	f1,620(x17)
  asm volatile("flw     %0,  620(%1)"   : "=f"(B_tmp) : "r"(B_ptr) : "memory");
 970:	26c82107          	flw	f2,620(x16)
  asm volatile("fadd.s  %0, %1, %2"     : "+f"(C_tmp) : "f"(A_tmp),  "f"(B_tmp));
 974:	0020f053          	fadd.s	f0,f1,f2
  //------------------------------------
  asm volatile("flw     %0,  624(%1)"   : "=f"(A_tmp) : "r"(A_ptr) : "memory");
 978:	2708a087          	flw	f1,624(x17)
  asm volatile("flw     %0,  624(%1)"   : "=f"(B_tmp) : "r"(B_ptr) : "memory");
 97c:	27082107          	flw	f2,624(x16)
  asm volatile("fadd.s  %0, %1, %2"     : "+f"(C_tmp) : "f"(A_tmp),  "f"(B_tmp));
 980:	0020f053          	fadd.s	f0,f1,f2
  //------------------------------------
  asm volatile("flw     %0,  628(%1)"   : "=f"(A_tmp) : "r"(A_ptr) : "memory");
 984:	2748a087          	flw	f1,628(x17)
  asm volatile("flw     %0,  628(%1)"   : "=f"(B_tmp) : "r"(B_ptr) : "memory");
 988:	27482107          	flw	f2,628(x16)
  asm volatile("fadd.s  %0, %1, %2"     : "+f"(C_tmp) : "f"(A_tmp),  "f"(B_tmp));
 98c:	0020f053          	fadd.s	f0,f1,f2
  //------------------------------------
  asm volatile("flw     %0,  632(%1)"   : "=f"(A_tmp) : "r"(A_ptr) : "memory");
 990:	2788a087          	flw	f1,632(x17)
  asm volatile("flw     %0,  632(%1)"   : "=f"(B_tmp) : "r"(B_ptr) : "memory");
 994:	27882107          	flw	f2,632(x16)
  asm volatile("fadd.s  %0, %1, %2"     : "+f"(C_tmp) : "f"(A_tmp),  "f"(B_tmp));
 998:	0020f053          	fadd.s	f0,f1,f2
  //------------------------------------
  asm volatile("flw     %0,  636(%1)"   : "=f"(A_tmp) : "r"(A_ptr) : "memory");
 99c:	27c8a087          	flw	f1,636(x17)
  asm volatile("flw     %0,  636(%1)"   : "=f"(B_tmp) : "r"(B_ptr) : "memory");
 9a0:	27c82107          	flw	f2,636(x16)
  asm volatile("fadd.s  %0, %1, %2"     : "+f"(C_tmp) : "f"(A_tmp),  "f"(B_tmp));
 9a4:	0020f053          	fadd.s	f0,f1,f2
  //------------------------------------
  asm volatile("flw     %0,  640(%1)"   : "=f"(A_tmp) : "r"(A_ptr) : "memory");
 9a8:	2808a087          	flw	f1,640(x17)
  asm volatile("flw     %0,  640(%1)"   : "=f"(B_tmp) : "r"(B_ptr) : "memory");
 9ac:	28082107          	flw	f2,640(x16)
  asm volatile("fadd.s  %0, %1, %2"     : "+f"(C_tmp) : "f"(A_tmp),  "f"(B_tmp));
 9b0:	0020f053          	fadd.s	f0,f1,f2
  //------------------------------------
  asm volatile("flw     %0,  644(%1)"   : "=f"(A_tmp) : "r"(A_ptr) : "memory");
 9b4:	2848a087          	flw	f1,644(x17)
  asm volatile("flw     %0,  644(%1)"   : "=f"(B_tmp) : "r"(B_ptr) : "memory");
 9b8:	28482107          	flw	f2,644(x16)
  asm volatile("fadd.s  %0, %1, %2"     : "+f"(C_tmp) : "f"(A_tmp),  "f"(B_tmp));
 9bc:	0020f053          	fadd.s	f0,f1,f2
  //------------------------------------
  asm volatile("flw     %0,  648(%1)"   : "=f"(A_tmp) : "r"(A_ptr) : "memory");
 9c0:	2888a087          	flw	f1,648(x17)
  asm volatile("flw     %0,  648(%1)"   : "=f"(B_tmp) : "r"(B_ptr) : "memory");
 9c4:	28882107          	flw	f2,648(x16)
  asm volatile("fadd.s  %0, %1, %2"     : "+f"(C_tmp) : "f"(A_tmp),  "f"(B_tmp));
 9c8:	0020f053          	fadd.s	f0,f1,f2
  //------------------------------------
  asm volatile("flw     %0,  652(%1)"   : "=f"(A_tmp) : "r"(A_ptr) : "memory");
 9cc:	28c8a087          	flw	f1,652(x17)
  asm volatile("flw     %0,  652(%1)"   : "=f"(B_tmp) : "r"(B_ptr) : "memory");
 9d0:	28c82107          	flw	f2,652(x16)
  asm volatile("fadd.s  %0, %1, %2"     : "+f"(C_tmp) : "f"(A_tmp),  "f"(B_tmp));
 9d4:	0020f053          	fadd.s	f0,f1,f2
  //------------------------------------
  asm volatile("flw     %0,  656(%1)"   : "=f"(A_tmp) : "r"(A_ptr) : "memory");
 9d8:	2908a087          	flw	f1,656(x17)
  asm volatile("flw     %0,  656(%1)"   : "=f"(B_tmp) : "r"(B_ptr) : "memory");
 9dc:	29082107          	flw	f2,656(x16)
  asm volatile("fadd.s  %0, %1, %2"     : "+f"(C_tmp) : "f"(A_tmp),  "f"(B_tmp));
 9e0:	0020f053          	fadd.s	f0,f1,f2
  //------------------------------------
  asm volatile("flw     %0,  660(%1)"   : "=f"(A_tmp) : "r"(A_ptr) : "memory");
 9e4:	2948a087          	flw	f1,660(x17)
  asm volatile("flw     %0,  660(%1)"   : "=f"(B_tmp) : "r"(B_ptr) : "memory");
 9e8:	29482107          	flw	f2,660(x16)
  asm volatile("fadd.s  %0, %1, %2"     : "+f"(C_tmp) : "f"(A_tmp),  "f"(B_tmp));
 9ec:	0020f053          	fadd.s	f0,f1,f2
  //------------------------------------
  asm volatile("flw     %0,  664(%1)"   : "=f"(A_tmp) : "r"(A_ptr) : "memory");
 9f0:	2988a087          	flw	f1,664(x17)
  asm volatile("flw     %0,  664(%1)"   : "=f"(B_tmp) : "r"(B_ptr) : "memory");
 9f4:	29882107          	flw	f2,664(x16)
  asm volatile("fadd.s  %0, %1, %2"     : "+f"(C_tmp) : "f"(A_tmp),  "f"(B_tmp));
 9f8:	0020f053          	fadd.s	f0,f1,f2
  //------------------------------------
  asm volatile("flw     %0,  668(%1)"   : "=f"(A_tmp) : "r"(A_ptr) : "memory");
 9fc:	29c8a087          	flw	f1,668(x17)
  asm volatile("flw     %0,  668(%1)"   : "=f"(B_tmp) : "r"(B_ptr) : "memory");
 a00:	29c82107          	flw	f2,668(x16)
  asm volatile("fadd.s  %0, %1, %2"     : "+f"(C_tmp) : "f"(A_tmp),  "f"(B_tmp));
 a04:	0020f053          	fadd.s	f0,f1,f2
  //------------------------------------
  asm volatile("flw     %0,  672(%1)"   : "=f"(A_tmp) : "r"(A_ptr) : "memory");
 a08:	2a08a087          	flw	f1,672(x17)
  asm volatile("flw     %0,  672(%1)"   : "=f"(B_tmp) : "r"(B_ptr) : "memory");
 a0c:	2a082107          	flw	f2,672(x16)
  asm volatile("fadd.s  %0, %1, %2"     : "+f"(C_tmp) : "f"(A_tmp),  "f"(B_tmp));
 a10:	0020f053          	fadd.s	f0,f1,f2
  //------------------------------------
  asm volatile("flw     %0,  676(%1)"   : "=f"(A_tmp) : "r"(A_ptr) : "memory");
 a14:	2a48a087          	flw	f1,676(x17)
  asm volatile("flw     %0,  676(%1)"   : "=f"(B_tmp) : "r"(B_ptr) : "memory");
 a18:	2a482107          	flw	f2,676(x16)
  asm volatile("fadd.s  %0, %1, %2"     : "+f"(C_tmp) : "f"(A_tmp),  "f"(B_tmp));
 a1c:	0020f053          	fadd.s	f0,f1,f2
  //------------------------------------
  asm volatile("flw     %0,  680(%1)"   : "=f"(A_tmp) : "r"(A_ptr) : "memory");
 a20:	2a88a087          	flw	f1,680(x17)
  asm volatile("flw     %0,  680(%1)"   : "=f"(B_tmp) : "r"(B_ptr) : "memory");
 a24:	2a882107          	flw	f2,680(x16)
  asm volatile("fadd.s  %0, %1, %2"     : "+f"(C_tmp) : "f"(A_tmp),  "f"(B_tmp));
 a28:	0020f053          	fadd.s	f0,f1,f2
  //------------------------------------
  asm volatile("flw     %0,  684(%1)"   : "=f"(A_tmp) : "r"(A_ptr) : "memory");
 a2c:	2ac8a087          	flw	f1,684(x17)
  asm volatile("flw     %0,  684(%1)"   : "=f"(B_tmp) : "r"(B_ptr) : "memory");
 a30:	2ac82107          	flw	f2,684(x16)
  asm volatile("fadd.s  %0, %1, %2"     : "+f"(C_tmp) : "f"(A_tmp),  "f"(B_tmp));
 a34:	0020f053          	fadd.s	f0,f1,f2
  //------------------------------------
  asm volatile("flw     %0,  688(%1)"   : "=f"(A_tmp) : "r"(A_ptr) : "memory");
 a38:	2b08a087          	flw	f1,688(x17)
  asm volatile("flw     %0,  688(%1)"   : "=f"(B_tmp) : "r"(B_ptr) : "memory");
 a3c:	2b082107          	flw	f2,688(x16)
  asm volatile("fadd.s  %0, %1, %2"     : "+f"(C_tmp) : "f"(A_tmp),  "f"(B_tmp));
 a40:	0020f053          	fadd.s	f0,f1,f2
  //------------------------------------
  asm volatile("flw     %0,  692(%1)"   : "=f"(A_tmp) : "r"(A_ptr) : "memory");
 a44:	2b48a087          	flw	f1,692(x17)
  asm volatile("flw     %0,  692(%1)"   : "=f"(B_tmp) : "r"(B_ptr) : "memory");
 a48:	2b482107          	flw	f2,692(x16)
  asm volatile("fadd.s  %0, %1, %2"     : "+f"(C_tmp) : "f"(A_tmp),  "f"(B_tmp));
 a4c:	0020f053          	fadd.s	f0,f1,f2
  //------------------------------------
  asm volatile("flw     %0,  696(%1)"   : "=f"(A_tmp) : "r"(A_ptr) : "memory");
 a50:	2b88a087          	flw	f1,696(x17)
  asm volatile("flw     %0,  696(%1)"   : "=f"(B_tmp) : "r"(B_ptr) : "memory");
 a54:	2b882107          	flw	f2,696(x16)
  asm volatile("fadd.s  %0, %1, %2"     : "+f"(C_tmp) : "f"(A_tmp),  "f"(B_tmp));
 a58:	0020f053          	fadd.s	f0,f1,f2
  //------------------------------------
  asm volatile("flw     %0,  700(%1)"   : "=f"(A_tmp) : "r"(A_ptr) : "memory");
 a5c:	2bc8a087          	flw	f1,700(x17)
  asm volatile("flw     %0,  700(%1)"   : "=f"(B_tmp) : "r"(B_ptr) : "memory");
 a60:	2bc82107          	flw	f2,700(x16)
  asm volatile("fadd.s  %0, %1, %2"     : "+f"(C_tmp) : "f"(A_tmp),  "f"(B_tmp));
 a64:	0020f053          	fadd.s	f0,f1,f2
  //------------------------------------
  asm volatile("flw     %0,  704(%1)"   : "=f"(A_tmp) : "r"(A_ptr) : "memory");
 a68:	2c08a087          	flw	f1,704(x17)
  asm volatile("flw     %0,  704(%1)"   : "=f"(B_tmp) : "r"(B_ptr) : "memory");
 a6c:	2c082107          	flw	f2,704(x16)
  asm volatile("fadd.s  %0, %1, %2"     : "+f"(C_tmp) : "f"(A_tmp),  "f"(B_tmp));
 a70:	0020f053          	fadd.s	f0,f1,f2
  //------------------------------------
  asm volatile("flw     %0,  708(%1)"   : "=f"(A_tmp) : "r"(A_ptr) : "memory");
 a74:	2c48a087          	flw	f1,708(x17)
  asm volatile("flw     %0,  708(%1)"   : "=f"(B_tmp) : "r"(B_ptr) : "memory");
 a78:	2c482107          	flw	f2,708(x16)
  asm volatile("fadd.s  %0, %1, %2"     : "+f"(C_tmp) : "f"(A_tmp),  "f"(B_tmp));
 a7c:	0020f053          	fadd.s	f0,f1,f2
  //------------------------------------
  asm volatile("flw     %0,  712(%1)"   : "=f"(A_tmp) : "r"(A_ptr) : "memory");
 a80:	2c88a087          	flw	f1,712(x17)
  asm volatile("flw     %0,  712(%1)"   : "=f"(B_tmp) : "r"(B_ptr) : "memory");
 a84:	2c882107          	flw	f2,712(x16)
  asm volatile("fadd.s  %0, %1, %2"     : "+f"(C_tmp) : "f"(A_tmp),  "f"(B_tmp));
 a88:	0020f053          	fadd.s	f0,f1,f2
  //------------------------------------
  asm volatile("flw     %0,  716(%1)"   : "=f"(A_tmp) : "r"(A_ptr) : "memory");
 a8c:	2cc8a087          	flw	f1,716(x17)
  asm volatile("flw     %0,  716(%1)"   : "=f"(B_tmp) : "r"(B_ptr) : "memory");
 a90:	2cc82107          	flw	f2,716(x16)
  asm volatile("fadd.s  %0, %1, %2"     : "+f"(C_tmp) : "f"(A_tmp),  "f"(B_tmp));
 a94:	0020f053          	fadd.s	f0,f1,f2
  //------------------------------------
  asm volatile("flw     %0,  720(%1)"   : "=f"(A_tmp) : "r"(A_ptr) : "memory");
 a98:	2d08a087          	flw	f1,720(x17)
  asm volatile("flw     %0,  720(%1)"   : "=f"(B_tmp) : "r"(B_ptr) : "memory");
 a9c:	2d082107          	flw	f2,720(x16)
  asm volatile("fadd.s  %0, %1, %2"     : "+f"(C_tmp) : "f"(A_tmp),  "f"(B_tmp));
 aa0:	0020f053          	fadd.s	f0,f1,f2
  //------------------------------------
  asm volatile("flw     %0,  724(%1)"   : "=f"(A_tmp) : "r"(A_ptr) : "memory");
 aa4:	2d48a087          	flw	f1,724(x17)
  asm volatile("flw     %0,  724(%1)"   : "=f"(B_tmp) : "r"(B_ptr) : "memory");
 aa8:	2d482107          	flw	f2,724(x16)
  asm volatile("fadd.s  %0, %1, %2"     : "+f"(C_tmp) : "f"(A_tmp),  "f"(B_tmp));
 aac:	0020f053          	fadd.s	f0,f1,f2
  //------------------------------------
  asm volatile("flw     %0,  728(%1)"   : "=f"(A_tmp) : "r"(A_ptr) : "memory");
 ab0:	2d88a087          	flw	f1,728(x17)
  asm volatile("flw     %0,  728(%1)"   : "=f"(B_tmp) : "r"(B_ptr) : "memory");
 ab4:	2d882107          	flw	f2,728(x16)
  asm volatile("fadd.s  %0, %1, %2"     : "+f"(C_tmp) : "f"(A_tmp),  "f"(B_tmp));
 ab8:	0020f053          	fadd.s	f0,f1,f2
  //------------------------------------
  asm volatile("flw     %0,  732(%1)"   : "=f"(A_tmp) : "r"(A_ptr) : "memory");
 abc:	2dc8a087          	flw	f1,732(x17)
  asm volatile("flw     %0,  732(%1)"   : "=f"(B_tmp) : "r"(B_ptr) : "memory");
 ac0:	2dc82107          	flw	f2,732(x16)
  asm volatile("fadd.s  %0, %1, %2"     : "+f"(C_tmp) : "f"(A_tmp),  "f"(B_tmp));
 ac4:	0020f053          	fadd.s	f0,f1,f2
  //------------------------------------
  asm volatile("flw     %0,  736(%1)"   : "=f"(A_tmp) : "r"(A_ptr) : "memory");
 ac8:	2e08a087          	flw	f1,736(x17)
  asm volatile("flw     %0,  736(%1)"   : "=f"(B_tmp) : "r"(B_ptr) : "memory");
 acc:	2e082107          	flw	f2,736(x16)
  asm volatile("fadd.s  %0, %1, %2"     : "+f"(C_tmp) : "f"(A_tmp),  "f"(B_tmp));
 ad0:	0020f053          	fadd.s	f0,f1,f2
  //------------------------------------
  asm volatile("flw     %0,  740(%1)"   : "=f"(A_tmp) : "r"(A_ptr) : "memory");
 ad4:	2e48a087          	flw	f1,740(x17)
  asm volatile("flw     %0,  740(%1)"   : "=f"(B_tmp) : "r"(B_ptr) : "memory");
 ad8:	2e482107          	flw	f2,740(x16)
  asm volatile("fadd.s  %0, %1, %2"     : "+f"(C_tmp) : "f"(A_tmp),  "f"(B_tmp));
 adc:	0020f053          	fadd.s	f0,f1,f2
  //------------------------------------
  asm volatile("flw     %0,  744(%1)"   : "=f"(A_tmp) : "r"(A_ptr) : "memory");
 ae0:	2e88a087          	flw	f1,744(x17)
  asm volatile("flw     %0,  744(%1)"   : "=f"(B_tmp) : "r"(B_ptr) : "memory");
 ae4:	2e882107          	flw	f2,744(x16)
  asm volatile("fadd.s  %0, %1, %2"     : "+f"(C_tmp) : "f"(A_tmp),  "f"(B_tmp));
 ae8:	0020f053          	fadd.s	f0,f1,f2
  //------------------------------------
  asm volatile("flw     %0,  748(%1)"   : "=f"(A_tmp) : "r"(A_ptr) : "memory");
 aec:	2ec8a087          	flw	f1,748(x17)
  asm volatile("flw     %0,  748(%1)"   : "=f"(B_tmp) : "r"(B_ptr) : "memory");
 af0:	2ec82107          	flw	f2,748(x16)
  asm volatile("fadd.s  %0, %1, %2"     : "+f"(C_tmp) : "f"(A_tmp),  "f"(B_tmp));
 af4:	0020f053          	fadd.s	f0,f1,f2
  //------------------------------------
  asm volatile("flw     %0,  752(%1)"   : "=f"(A_tmp) : "r"(A_ptr) : "memory");
 af8:	2f08a087          	flw	f1,752(x17)
  asm volatile("flw     %0,  752(%1)"   : "=f"(B_tmp) : "r"(B_ptr) : "memory");
 afc:	2f082107          	flw	f2,752(x16)
  asm volatile("fadd.s  %0, %1, %2"     : "+f"(C_tmp) : "f"(A_tmp),  "f"(B_tmp));
 b00:	0020f053          	fadd.s	f0,f1,f2
  //------------------------------------
  asm volatile("flw     %0,  756(%1)"   : "=f"(A_tmp) : "r"(A_ptr) : "memory");
 b04:	2f48a087          	flw	f1,756(x17)
  asm volatile("flw     %0,  756(%1)"   : "=f"(B_tmp) : "r"(B_ptr) : "memory");
 b08:	2f482107          	flw	f2,756(x16)
  asm volatile("fadd.s  %0, %1, %2"     : "+f"(C_tmp) : "f"(A_tmp),  "f"(B_tmp));
 b0c:	0020f053          	fadd.s	f0,f1,f2
  //------------------------------------
  asm volatile("flw     %0,  760(%1)"   : "=f"(A_tmp) : "r"(A_ptr) : "memory");
 b10:	2f88a087          	flw	f1,760(x17)
  asm volatile("flw     %0,  760(%1)"   : "=f"(B_tmp) : "r"(B_ptr) : "memory");
 b14:	2f882107          	flw	f2,760(x16)
  asm volatile("fadd.s  %0, %1, %2"     : "+f"(C_tmp) : "f"(A_tmp),  "f"(B_tmp));
 b18:	0020f053          	fadd.s	f0,f1,f2
  //------------------------------------
  asm volatile("flw     %0,  764(%1)"   : "=f"(A_tmp) : "r"(A_ptr) : "memory");
 b1c:	2fc8a087          	flw	f1,764(x17)
  asm volatile("flw     %0,  764(%1)"   : "=f"(B_tmp) : "r"(B_ptr) : "memory");
 b20:	2fc82107          	flw	f2,764(x16)
  asm volatile("fadd.s  %0, %1, %2"     : "+f"(C_tmp) : "f"(A_tmp),  "f"(B_tmp));
 b24:	0020f053          	fadd.s	f0,f1,f2
  //------------------------------------
  asm volatile("flw     %0,  768(%1)"   : "=f"(A_tmp) : "r"(A_ptr) : "memory");
 b28:	3008a087          	flw	f1,768(x17)
  asm volatile("flw     %0,  768(%1)"   : "=f"(B_tmp) : "r"(B_ptr) : "memory");
 b2c:	30082107          	flw	f2,768(x16)
  asm volatile("fadd.s  %0, %1, %2"     : "+f"(C_tmp) : "f"(A_tmp),  "f"(B_tmp));
 b30:	0020f053          	fadd.s	f0,f1,f2
  //------------------------------------
  asm volatile("flw     %0,  772(%1)"   : "=f"(A_tmp) : "r"(A_ptr) : "memory");
 b34:	3048a087          	flw	f1,772(x17)
  asm volatile("flw     %0,  772(%1)"   : "=f"(B_tmp) : "r"(B_ptr) : "memory");
 b38:	30482107          	flw	f2,772(x16)
  asm volatile("fadd.s  %0, %1, %2"     : "+f"(C_tmp) : "f"(A_tmp),  "f"(B_tmp));
 b3c:	0020f053          	fadd.s	f0,f1,f2
  //------------------------------------
  asm volatile("flw     %0,  776(%1)"   : "=f"(A_tmp) : "r"(A_ptr) : "memory");
 b40:	3088a087          	flw	f1,776(x17)
  asm volatile("flw     %0,  776(%1)"   : "=f"(B_tmp) : "r"(B_ptr) : "memory");
 b44:	30882107          	flw	f2,776(x16)
  asm volatile("fadd.s  %0, %1, %2"     : "+f"(C_tmp) : "f"(A_tmp),  "f"(B_tmp));
 b48:	0020f053          	fadd.s	f0,f1,f2
  //------------------------------------
  asm volatile("flw     %0,  780(%1)"   : "=f"(A_tmp) : "r"(A_ptr) : "memory");
 b4c:	30c8a087          	flw	f1,780(x17)
  asm volatile("flw     %0,  780(%1)"   : "=f"(B_tmp) : "r"(B_ptr) : "memory");
 b50:	30c82107          	flw	f2,780(x16)
  asm volatile("fadd.s  %0, %1, %2"     : "+f"(C_tmp) : "f"(A_tmp),  "f"(B_tmp));
 b54:	0020f053          	fadd.s	f0,f1,f2
  //------------------------------------
  asm volatile("flw     %0,  784(%1)"   : "=f"(A_tmp) : "r"(A_ptr) : "memory");
 b58:	3108a087          	flw	f1,784(x17)
  asm volatile("flw     %0,  784(%1)"   : "=f"(B_tmp) : "r"(B_ptr) : "memory");
 b5c:	31082107          	flw	f2,784(x16)
  asm volatile("fadd.s  %0, %1, %2"     : "+f"(C_tmp) : "f"(A_tmp),  "f"(B_tmp));
 b60:	0020f053          	fadd.s	f0,f1,f2
  //------------------------------------
  asm volatile("flw     %0,  788(%1)"   : "=f"(A_tmp) : "r"(A_ptr) : "memory");
 b64:	3148a087          	flw	f1,788(x17)
  asm volatile("flw     %0,  788(%1)"   : "=f"(B_tmp) : "r"(B_ptr) : "memory");
 b68:	31482107          	flw	f2,788(x16)
  asm volatile("fadd.s  %0, %1, %2"     : "+f"(C_tmp) : "f"(A_tmp),  "f"(B_tmp));
 b6c:	0020f053          	fadd.s	f0,f1,f2
  //------------------------------------
  asm volatile("flw     %0,  792(%1)"   : "=f"(A_tmp) : "r"(A_ptr) : "memory");
 b70:	3188a087          	flw	f1,792(x17)
  asm volatile("flw     %0,  792(%1)"   : "=f"(B_tmp) : "r"(B_ptr) : "memory");
 b74:	31882107          	flw	f2,792(x16)
  asm volatile("fadd.s  %0, %1, %2"     : "+f"(C_tmp) : "f"(A_tmp),  "f"(B_tmp));
 b78:	0020f053          	fadd.s	f0,f1,f2
  //------------------------------------
  asm volatile("flw     %0,  796(%1)"   : "=f"(A_tmp) : "r"(A_ptr) : "memory");
 b7c:	31c8a087          	flw	f1,796(x17)
  asm volatile("flw     %0,  796(%1)"   : "=f"(B_tmp) : "r"(B_ptr) : "memory");
 b80:	31c82107          	flw	f2,796(x16)
  asm volatile("fadd.s  %0, %1, %2"     : "+f"(C_tmp) : "f"(A_tmp),  "f"(B_tmp));
 b84:	0020f053          	fadd.s	f0,f1,f2
  //------------------------------------
  asm volatile("flw     %0,  800(%1)"   : "=f"(A_tmp) : "r"(A_ptr) : "memory");
 b88:	3208a087          	flw	f1,800(x17)
  asm volatile("flw     %0,  800(%1)"   : "=f"(B_tmp) : "r"(B_ptr) : "memory");
 b8c:	32082107          	flw	f2,800(x16)
  asm volatile("fadd.s  %0, %1, %2"     : "+f"(C_tmp) : "f"(A_tmp),  "f"(B_tmp));
 b90:	0020f053          	fadd.s	f0,f1,f2
  //------------------------------------
  asm volatile("flw     %0,  804(%1)"   : "=f"(A_tmp) : "r"(A_ptr) : "memory");
 b94:	3248a087          	flw	f1,804(x17)
  asm volatile("flw     %0,  804(%1)"   : "=f"(B_tmp) : "r"(B_ptr) : "memory");
 b98:	32482107          	flw	f2,804(x16)
  asm volatile("fadd.s  %0, %1, %2"     : "+f"(C_tmp) : "f"(A_tmp),  "f"(B_tmp));
 b9c:	0020f053          	fadd.s	f0,f1,f2
  //------------------------------------
  asm volatile("flw     %0,  808(%1)"   : "=f"(A_tmp) : "r"(A_ptr) : "memory");
 ba0:	3288a087          	flw	f1,808(x17)
  asm volatile("flw     %0,  808(%1)"   : "=f"(B_tmp) : "r"(B_ptr) : "memory");
 ba4:	32882107          	flw	f2,808(x16)
  asm volatile("fadd.s  %0, %1, %2"     : "+f"(C_tmp) : "f"(A_tmp),  "f"(B_tmp));
 ba8:	0020f053          	fadd.s	f0,f1,f2
  //------------------------------------
  asm volatile("flw     %0,  812(%1)"   : "=f"(A_tmp) : "r"(A_ptr) : "memory");
 bac:	32c8a087          	flw	f1,812(x17)
  asm volatile("flw     %0,  812(%1)"   : "=f"(B_tmp) : "r"(B_ptr) : "memory");
 bb0:	32c82107          	flw	f2,812(x16)
  asm volatile("fadd.s  %0, %1, %2"     : "+f"(C_tmp) : "f"(A_tmp),  "f"(B_tmp));
 bb4:	0020f053          	fadd.s	f0,f1,f2
  //------------------------------------
  asm volatile("flw     %0,  816(%1)"   : "=f"(A_tmp) : "r"(A_ptr) : "memory");
 bb8:	3308a087          	flw	f1,816(x17)
  asm volatile("flw     %0,  816(%1)"   : "=f"(B_tmp) : "r"(B_ptr) : "memory");
 bbc:	33082107          	flw	f2,816(x16)
  asm volatile("fadd.s  %0, %1, %2"     : "+f"(C_tmp) : "f"(A_tmp),  "f"(B_tmp));
 bc0:	0020f053          	fadd.s	f0,f1,f2
  //------------------------------------
  asm volatile("flw     %0,  820(%1)"   : "=f"(A_tmp) : "r"(A_ptr) : "memory");
 bc4:	3348a087          	flw	f1,820(x17)
  asm volatile("flw     %0,  820(%1)"   : "=f"(B_tmp) : "r"(B_ptr) : "memory");
 bc8:	33482107          	flw	f2,820(x16)
  asm volatile("fadd.s  %0, %1, %2"     : "+f"(C_tmp) : "f"(A_tmp),  "f"(B_tmp));
 bcc:	0020f053          	fadd.s	f0,f1,f2
  //------------------------------------
  asm volatile("flw     %0,  824(%1)"   : "=f"(A_tmp) : "r"(A_ptr) : "memory");
 bd0:	3388a087          	flw	f1,824(x17)
  asm volatile("flw     %0,  824(%1)"   : "=f"(B_tmp) : "r"(B_ptr) : "memory");
 bd4:	33882107          	flw	f2,824(x16)
  asm volatile("fadd.s  %0, %1, %2"     : "+f"(C_tmp) : "f"(A_tmp),  "f"(B_tmp));
 bd8:	0020f053          	fadd.s	f0,f1,f2
  //------------------------------------
  asm volatile("flw     %0,  828(%1)"   : "=f"(A_tmp) : "r"(A_ptr) : "memory");
 bdc:	33c8a087          	flw	f1,828(x17)
  asm volatile("flw     %0,  828(%1)"   : "=f"(B_tmp) : "r"(B_ptr) : "memory");
 be0:	33c82107          	flw	f2,828(x16)
  asm volatile("fadd.s  %0, %1, %2"     : "+f"(C_tmp) : "f"(A_tmp),  "f"(B_tmp));
 be4:	0020f053          	fadd.s	f0,f1,f2
  //------------------------------------
  asm volatile("flw     %0,  832(%1)"   : "=f"(A_tmp) : "r"(A_ptr) : "memory");
 be8:	3408a087          	flw	f1,832(x17)
  asm volatile("flw     %0,  832(%1)"   : "=f"(B_tmp) : "r"(B_ptr) : "memory");
 bec:	34082107          	flw	f2,832(x16)
  asm volatile("fadd.s  %0, %1, %2"     : "+f"(C_tmp) : "f"(A_tmp),  "f"(B_tmp));
 bf0:	0020f053          	fadd.s	f0,f1,f2
  //------------------------------------
  asm volatile("flw     %0,  836(%1)"   : "=f"(A_tmp) : "r"(A_ptr) : "memory");
 bf4:	3448a087          	flw	f1,836(x17)
  asm volatile("flw     %0,  836(%1)"   : "=f"(B_tmp) : "r"(B_ptr) : "memory");
 bf8:	34482107          	flw	f2,836(x16)
  asm volatile("fadd.s  %0, %1, %2"     : "+f"(C_tmp) : "f"(A_tmp),  "f"(B_tmp));
 bfc:	0020f053          	fadd.s	f0,f1,f2
  //------------------------------------
  asm volatile("flw     %0,  840(%1)"   : "=f"(A_tmp) : "r"(A_ptr) : "memory");
 c00:	3488a087          	flw	f1,840(x17)
  asm volatile("flw     %0,  840(%1)"   : "=f"(B_tmp) : "r"(B_ptr) : "memory");
 c04:	34882107          	flw	f2,840(x16)
  asm volatile("fadd.s  %0, %1, %2"     : "+f"(C_tmp) : "f"(A_tmp),  "f"(B_tmp));
 c08:	0020f053          	fadd.s	f0,f1,f2
  //------------------------------------
  asm volatile("flw     %0,  844(%1)"   : "=f"(A_tmp) : "r"(A_ptr) : "memory");
 c0c:	34c8a087          	flw	f1,844(x17)
  asm volatile("flw     %0,  844(%1)"   : "=f"(B_tmp) : "r"(B_ptr) : "memory");
 c10:	34c82107          	flw	f2,844(x16)
  asm volatile("fadd.s  %0, %1, %2"     : "+f"(C_tmp) : "f"(A_tmp),  "f"(B_tmp));
 c14:	0020f053          	fadd.s	f0,f1,f2
  //------------------------------------
  asm volatile("flw     %0,  848(%1)"   : "=f"(A_tmp) : "r"(A_ptr) : "memory");
 c18:	3508a087          	flw	f1,848(x17)
  asm volatile("flw     %0,  848(%1)"   : "=f"(B_tmp) : "r"(B_ptr) : "memory");
 c1c:	35082107          	flw	f2,848(x16)
  asm volatile("fadd.s  %0, %1, %2"     : "+f"(C_tmp) : "f"(A_tmp),  "f"(B_tmp));
 c20:	0020f053          	fadd.s	f0,f1,f2
  //------------------------------------
  asm volatile("flw     %0,  852(%1)"   : "=f"(A_tmp) : "r"(A_ptr) : "memory");
 c24:	3548a087          	flw	f1,852(x17)
  asm volatile("flw     %0,  852(%1)"   : "=f"(B_tmp) : "r"(B_ptr) : "memory");
 c28:	35482107          	flw	f2,852(x16)
  asm volatile("fadd.s  %0, %1, %2"     : "+f"(C_tmp) : "f"(A_tmp),  "f"(B_tmp));
 c2c:	0020f053          	fadd.s	f0,f1,f2
  //------------------------------------
  asm volatile("flw     %0,  856(%1)"   : "=f"(A_tmp) : "r"(A_ptr) : "memory");
 c30:	3588a087          	flw	f1,856(x17)
  asm volatile("flw     %0,  856(%1)"   : "=f"(B_tmp) : "r"(B_ptr) : "memory");
 c34:	35882107          	flw	f2,856(x16)
  asm volatile("fadd.s  %0, %1, %2"     : "+f"(C_tmp) : "f"(A_tmp),  "f"(B_tmp));
 c38:	0020f053          	fadd.s	f0,f1,f2
  //------------------------------------
  asm volatile("flw     %0,  860(%1)"   : "=f"(A_tmp) : "r"(A_ptr) : "memory");
 c3c:	35c8a087          	flw	f1,860(x17)
  asm volatile("flw     %0,  860(%1)"   : "=f"(B_tmp) : "r"(B_ptr) : "memory");
 c40:	35c82107          	flw	f2,860(x16)
  asm volatile("fadd.s  %0, %1, %2"     : "+f"(C_tmp) : "f"(A_tmp),  "f"(B_tmp));
 c44:	0020f053          	fadd.s	f0,f1,f2
  //------------------------------------
  asm volatile("flw     %0,  864(%1)"   : "=f"(A_tmp) : "r"(A_ptr) : "memory");
 c48:	3608a087          	flw	f1,864(x17)
  asm volatile("flw     %0,  864(%1)"   : "=f"(B_tmp) : "r"(B_ptr) : "memory");
 c4c:	36082107          	flw	f2,864(x16)
  asm volatile("fadd.s  %0, %1, %2"     : "+f"(C_tmp) : "f"(A_tmp),  "f"(B_tmp));
 c50:	0020f053          	fadd.s	f0,f1,f2
  //------------------------------------
  asm volatile("flw     %0,  868(%1)"   : "=f"(A_tmp) : "r"(A_ptr) : "memory");
 c54:	3648a087          	flw	f1,868(x17)
  asm volatile("flw     %0,  868(%1)"   : "=f"(B_tmp) : "r"(B_ptr) : "memory");
 c58:	36482107          	flw	f2,868(x16)
  asm volatile("fadd.s  %0, %1, %2"     : "+f"(C_tmp) : "f"(A_tmp),  "f"(B_tmp));
 c5c:	0020f053          	fadd.s	f0,f1,f2
  //------------------------------------
  asm volatile("flw     %0,  872(%1)"   : "=f"(A_tmp) : "r"(A_ptr) : "memory");
 c60:	3688a087          	flw	f1,872(x17)
  asm volatile("flw     %0,  872(%1)"   : "=f"(B_tmp) : "r"(B_ptr) : "memory");
 c64:	36882107          	flw	f2,872(x16)
  asm volatile("fadd.s  %0, %1, %2"     : "+f"(C_tmp) : "f"(A_tmp),  "f"(B_tmp));
 c68:	0020f053          	fadd.s	f0,f1,f2
  //------------------------------------
  asm volatile("flw     %0,  876(%1)"   : "=f"(A_tmp) : "r"(A_ptr) : "memory");
 c6c:	36c8a087          	flw	f1,876(x17)
  asm volatile("flw     %0,  876(%1)"   : "=f"(B_tmp) : "r"(B_ptr) : "memory");
 c70:	36c82107          	flw	f2,876(x16)
  asm volatile("fadd.s  %0, %1, %2"     : "+f"(C_tmp) : "f"(A_tmp),  "f"(B_tmp));
 c74:	0020f053          	fadd.s	f0,f1,f2
  //------------------------------------
  asm volatile("flw     %0,  880(%1)"   : "=f"(A_tmp) : "r"(A_ptr) : "memory");
 c78:	3708a087          	flw	f1,880(x17)
  asm volatile("flw     %0,  880(%1)"   : "=f"(B_tmp) : "r"(B_ptr) : "memory");
 c7c:	37082107          	flw	f2,880(x16)
  asm volatile("fadd.s  %0, %1, %2"     : "+f"(C_tmp) : "f"(A_tmp),  "f"(B_tmp));
 c80:	0020f053          	fadd.s	f0,f1,f2
  //------------------------------------
  asm volatile("flw     %0,  884(%1)"   : "=f"(A_tmp) : "r"(A_ptr) : "memory");
 c84:	3748a087          	flw	f1,884(x17)
  asm volatile("flw     %0,  884(%1)"   : "=f"(B_tmp) : "r"(B_ptr) : "memory");
 c88:	37482107          	flw	f2,884(x16)
  asm volatile("fadd.s  %0, %1, %2"     : "+f"(C_tmp) : "f"(A_tmp),  "f"(B_tmp));
 c8c:	0020f053          	fadd.s	f0,f1,f2
  //------------------------------------
  asm volatile("flw     %0,  888(%1)"   : "=f"(A_tmp) : "r"(A_ptr) : "memory");
 c90:	3788a087          	flw	f1,888(x17)
  asm volatile("flw     %0,  888(%1)"   : "=f"(B_tmp) : "r"(B_ptr) : "memory");
 c94:	37882107          	flw	f2,888(x16)
  asm volatile("fadd.s  %0, %1, %2"     : "+f"(C_tmp) : "f"(A_tmp),  "f"(B_tmp));
 c98:	0020f053          	fadd.s	f0,f1,f2
  //------------------------------------
  asm volatile("flw     %0,  892(%1)"   : "=f"(A_tmp) : "r"(A_ptr) : "memory");
 c9c:	37c8a087          	flw	f1,892(x17)
  asm volatile("flw     %0,  892(%1)"   : "=f"(B_tmp) : "r"(B_ptr) : "memory");
 ca0:	37c82107          	flw	f2,892(x16)
  asm volatile("fadd.s  %0, %1, %2"     : "+f"(C_tmp) : "f"(A_tmp),  "f"(B_tmp));
 ca4:	0020f053          	fadd.s	f0,f1,f2
  //------------------------------------
  asm volatile("flw     %0,  896(%1)"   : "=f"(A_tmp) : "r"(A_ptr) : "memory");
 ca8:	3808a087          	flw	f1,896(x17)
  asm volatile("flw     %0,  896(%1)"   : "=f"(B_tmp) : "r"(B_ptr) : "memory");
 cac:	38082107          	flw	f2,896(x16)
  asm volatile("fadd.s  %0, %1, %2"     : "+f"(C_tmp) : "f"(A_tmp),  "f"(B_tmp));
 cb0:	0020f053          	fadd.s	f0,f1,f2
  //------------------------------------
  asm volatile("flw     %0,  900(%1)"   : "=f"(A_tmp) : "r"(A_ptr) : "memory");
 cb4:	3848a087          	flw	f1,900(x17)
  asm volatile("flw     %0,  900(%1)"   : "=f"(B_tmp) : "r"(B_ptr) : "memory");
 cb8:	38482107          	flw	f2,900(x16)
  asm volatile("fadd.s  %0, %1, %2"     : "+f"(C_tmp) : "f"(A_tmp),  "f"(B_tmp));
 cbc:	0020f053          	fadd.s	f0,f1,f2
  //------------------------------------
  asm volatile("flw     %0,  904(%1)"   : "=f"(A_tmp) : "r"(A_ptr) : "memory");
 cc0:	3888a087          	flw	f1,904(x17)
  asm volatile("flw     %0,  904(%1)"   : "=f"(B_tmp) : "r"(B_ptr) : "memory");
 cc4:	38882107          	flw	f2,904(x16)
  asm volatile("fadd.s  %0, %1, %2"     : "+f"(C_tmp) : "f"(A_tmp),  "f"(B_tmp));
 cc8:	0020f053          	fadd.s	f0,f1,f2
  //------------------------------------
  asm volatile("flw     %0,  908(%1)"   : "=f"(A_tmp) : "r"(A_ptr) : "memory");
 ccc:	38c8a087          	flw	f1,908(x17)
  asm volatile("flw     %0,  908(%1)"   : "=f"(B_tmp) : "r"(B_ptr) : "memory");
 cd0:	38c82107          	flw	f2,908(x16)
  asm volatile("fadd.s  %0, %1, %2"     : "+f"(C_tmp) : "f"(A_tmp),  "f"(B_tmp));
 cd4:	0020f053          	fadd.s	f0,f1,f2
  //------------------------------------
  asm volatile("flw     %0,  912(%1)"   : "=f"(A_tmp) : "r"(A_ptr) : "memory");
 cd8:	3908a087          	flw	f1,912(x17)
  asm volatile("flw     %0,  912(%1)"   : "=f"(B_tmp) : "r"(B_ptr) : "memory");
 cdc:	39082107          	flw	f2,912(x16)
  asm volatile("fadd.s  %0, %1, %2"     : "+f"(C_tmp) : "f"(A_tmp),  "f"(B_tmp));
 ce0:	0020f053          	fadd.s	f0,f1,f2
  //------------------------------------
  asm volatile("flw     %0,  916(%1)"   : "=f"(A_tmp) : "r"(A_ptr) : "memory");
 ce4:	3948a087          	flw	f1,916(x17)
  asm volatile("flw     %0,  916(%1)"   : "=f"(B_tmp) : "r"(B_ptr) : "memory");
 ce8:	39482107          	flw	f2,916(x16)
  asm volatile("fadd.s  %0, %1, %2"     : "+f"(C_tmp) : "f"(A_tmp),  "f"(B_tmp));
 cec:	0020f053          	fadd.s	f0,f1,f2
  //------------------------------------
  asm volatile("flw     %0,  920(%1)"   : "=f"(A_tmp) : "r"(A_ptr) : "memory");
 cf0:	3988a087          	flw	f1,920(x17)
  asm volatile("flw     %0,  920(%1)"   : "=f"(B_tmp) : "r"(B_ptr) : "memory");
 cf4:	39882107          	flw	f2,920(x16)
  asm volatile("fadd.s  %0, %1, %2"     : "+f"(C_tmp) : "f"(A_tmp),  "f"(B_tmp));
 cf8:	0020f053          	fadd.s	f0,f1,f2
  //------------------------------------
  asm volatile("flw     %0,  924(%1)"   : "=f"(A_tmp) : "r"(A_ptr) : "memory");
 cfc:	39c8a087          	flw	f1,924(x17)
  asm volatile("flw     %0,  924(%1)"   : "=f"(B_tmp) : "r"(B_ptr) : "memory");
 d00:	39c82107          	flw	f2,924(x16)
  asm volatile("fadd.s  %0, %1, %2"     : "+f"(C_tmp) : "f"(A_tmp),  "f"(B_tmp));
 d04:	0020f053          	fadd.s	f0,f1,f2
  //------------------------------------
  asm volatile("flw     %0,  928(%1)"   : "=f"(A_tmp) : "r"(A_ptr) : "memory");
 d08:	3a08a087          	flw	f1,928(x17)
  asm volatile("flw     %0,  928(%1)"   : "=f"(B_tmp) : "r"(B_ptr) : "memory");
 d0c:	3a082107          	flw	f2,928(x16)
  asm volatile("fadd.s  %0, %1, %2"     : "+f"(C_tmp) : "f"(A_tmp),  "f"(B_tmp));
 d10:	0020f053          	fadd.s	f0,f1,f2
  //------------------------------------
  asm volatile("flw     %0,  932(%1)"   : "=f"(A_tmp) : "r"(A_ptr) : "memory");
 d14:	3a48a087          	flw	f1,932(x17)
  asm volatile("flw     %0,  932(%1)"   : "=f"(B_tmp) : "r"(B_ptr) : "memory");
 d18:	3a482107          	flw	f2,932(x16)
  asm volatile("fadd.s  %0, %1, %2"     : "+f"(C_tmp) : "f"(A_tmp),  "f"(B_tmp));
 d1c:	0020f053          	fadd.s	f0,f1,f2
  //------------------------------------
  asm volatile("flw     %0,  936(%1)"   : "=f"(A_tmp) : "r"(A_ptr) : "memory");
 d20:	3a88a087          	flw	f1,936(x17)
  asm volatile("flw     %0,  936(%1)"   : "=f"(B_tmp) : "r"(B_ptr) : "memory");
 d24:	3a882107          	flw	f2,936(x16)
  asm volatile("fadd.s  %0, %1, %2"     : "+f"(C_tmp) : "f"(A_tmp),  "f"(B_tmp));
 d28:	0020f053          	fadd.s	f0,f1,f2
  //------------------------------------
  asm volatile("flw     %0,  940(%1)"   : "=f"(A_tmp) : "r"(A_ptr) : "memory");
 d2c:	3ac8a087          	flw	f1,940(x17)
  asm volatile("flw     %0,  940(%1)"   : "=f"(B_tmp) : "r"(B_ptr) : "memory");
 d30:	3ac82107          	flw	f2,940(x16)
  asm volatile("fadd.s  %0, %1, %2"     : "+f"(C_tmp) : "f"(A_tmp),  "f"(B_tmp));
 d34:	0020f053          	fadd.s	f0,f1,f2
  //------------------------------------
  asm volatile("flw     %0,  944(%1)"   : "=f"(A_tmp) : "r"(A_ptr) : "memory");
 d38:	3b08a087          	flw	f1,944(x17)
  asm volatile("flw     %0,  944(%1)"   : "=f"(B_tmp) : "r"(B_ptr) : "memory");
 d3c:	3b082107          	flw	f2,944(x16)
  asm volatile("fadd.s  %0, %1, %2"     : "+f"(C_tmp) : "f"(A_tmp),  "f"(B_tmp));
 d40:	0020f053          	fadd.s	f0,f1,f2
  //------------------------------------
  asm volatile("flw     %0,  948(%1)"   : "=f"(A_tmp) : "r"(A_ptr) : "memory");
 d44:	3b48a087          	flw	f1,948(x17)
  asm volatile("flw     %0,  948(%1)"   : "=f"(B_tmp) : "r"(B_ptr) : "memory");
 d48:	3b482107          	flw	f2,948(x16)
  asm volatile("fadd.s  %0, %1, %2"     : "+f"(C_tmp) : "f"(A_tmp),  "f"(B_tmp));
 d4c:	0020f053          	fadd.s	f0,f1,f2
  //------------------------------------
  asm volatile("flw     %0,  952(%1)"   : "=f"(A_tmp) : "r"(A_ptr) : "memory");
 d50:	3b88a087          	flw	f1,952(x17)
  asm volatile("flw     %0,  952(%1)"   : "=f"(B_tmp) : "r"(B_ptr) : "memory");
 d54:	3b882107          	flw	f2,952(x16)
  asm volatile("fadd.s  %0, %1, %2"     : "+f"(C_tmp) : "f"(A_tmp),  "f"(B_tmp));
 d58:	0020f053          	fadd.s	f0,f1,f2
  //------------------------------------
  asm volatile("flw     %0,  956(%1)"   : "=f"(A_tmp) : "r"(A_ptr) : "memory");
 d5c:	3bc8a087          	flw	f1,956(x17)
  asm volatile("flw     %0,  956(%1)"   : "=f"(B_tmp) : "r"(B_ptr) : "memory");
 d60:	3bc82107          	flw	f2,956(x16)
  asm volatile("fadd.s  %0, %1, %2"     : "+f"(C_tmp) : "f"(A_tmp),  "f"(B_tmp));
 d64:	0020f053          	fadd.s	f0,f1,f2
  //------------------------------------
  asm volatile("flw     %0,  960(%1)"   : "=f"(A_tmp) : "r"(A_ptr) : "memory");
 d68:	3c08a087          	flw	f1,960(x17)
  asm volatile("flw     %0,  960(%1)"   : "=f"(B_tmp) : "r"(B_ptr) : "memory");
 d6c:	3c082107          	flw	f2,960(x16)
  asm volatile("fadd.s  %0, %1, %2"     : "+f"(C_tmp) : "f"(A_tmp),  "f"(B_tmp));
 d70:	0020f053          	fadd.s	f0,f1,f2
  //------------------------------------
  asm volatile("flw     %0,  964(%1)"   : "=f"(A_tmp) : "r"(A_ptr) : "memory");
 d74:	3c48a087          	flw	f1,964(x17)
  asm volatile("flw     %0,  964(%1)"   : "=f"(B_tmp) : "r"(B_ptr) : "memory");
 d78:	3c482107          	flw	f2,964(x16)
  asm volatile("fadd.s  %0, %1, %2"     : "+f"(C_tmp) : "f"(A_tmp),  "f"(B_tmp));
 d7c:	0020f053          	fadd.s	f0,f1,f2
  //------------------------------------
  asm volatile("flw     %0,  968(%1)"   : "=f"(A_tmp) : "r"(A_ptr) : "memory");
 d80:	3c88a087          	flw	f1,968(x17)
  asm volatile("flw     %0,  968(%1)"   : "=f"(B_tmp) : "r"(B_ptr) : "memory");
 d84:	3c882107          	flw	f2,968(x16)
  asm volatile("fadd.s  %0, %1, %2"     : "+f"(C_tmp) : "f"(A_tmp),  "f"(B_tmp));
 d88:	0020f053          	fadd.s	f0,f1,f2
  //------------------------------------
  asm volatile("flw     %0,  972(%1)"   : "=f"(A_tmp) : "r"(A_ptr) : "memory");
 d8c:	3cc8a087          	flw	f1,972(x17)
  asm volatile("flw     %0,  972(%1)"   : "=f"(B_tmp) : "r"(B_ptr) : "memory");
 d90:	3cc82107          	flw	f2,972(x16)
  asm volatile("fadd.s  %0, %1, %2"     : "+f"(C_tmp) : "f"(A_tmp),  "f"(B_tmp));
 d94:	0020f053          	fadd.s	f0,f1,f2
  //------------------------------------
  asm volatile("flw     %0,  976(%1)"   : "=f"(A_tmp) : "r"(A_ptr) : "memory");
 d98:	3d08a087          	flw	f1,976(x17)
  asm volatile("flw     %0,  976(%1)"   : "=f"(B_tmp) : "r"(B_ptr) : "memory");
 d9c:	3d082107          	flw	f2,976(x16)
  asm volatile("fadd.s  %0, %1, %2"     : "+f"(C_tmp) : "f"(A_tmp),  "f"(B_tmp));
 da0:	0020f053          	fadd.s	f0,f1,f2
  //------------------------------------
  asm volatile("flw     %0,  980(%1)"   : "=f"(A_tmp) : "r"(A_ptr) : "memory");
 da4:	3d48a087          	flw	f1,980(x17)
  asm volatile("flw     %0,  980(%1)"   : "=f"(B_tmp) : "r"(B_ptr) : "memory");
 da8:	3d482107          	flw	f2,980(x16)
  asm volatile("fadd.s  %0, %1, %2"     : "+f"(C_tmp) : "f"(A_tmp),  "f"(B_tmp));
 dac:	0020f053          	fadd.s	f0,f1,f2
  //------------------------------------
  asm volatile("flw     %0,  984(%1)"   : "=f"(A_tmp) : "r"(A_ptr) : "memory");
 db0:	3d88a087          	flw	f1,984(x17)
  asm volatile("flw     %0,  984(%1)"   : "=f"(B_tmp) : "r"(B_ptr) : "memory");
 db4:	3d882107          	flw	f2,984(x16)
  asm volatile("fadd.s  %0, %1, %2"     : "+f"(C_tmp) : "f"(A_tmp),  "f"(B_tmp));
 db8:	0020f053          	fadd.s	f0,f1,f2
  //------------------------------------
  asm volatile("flw     %0,  988(%1)"   : "=f"(A_tmp) : "r"(A_ptr) : "memory");
 dbc:	3dc8a087          	flw	f1,988(x17)
  asm volatile("flw     %0,  988(%1)"   : "=f"(B_tmp) : "r"(B_ptr) : "memory");
 dc0:	3dc82107          	flw	f2,988(x16)
  asm volatile("fadd.s  %0, %1, %2"     : "+f"(C_tmp) : "f"(A_tmp),  "f"(B_tmp));
 dc4:	0020f053          	fadd.s	f0,f1,f2
  //------------------------------------
  asm volatile("flw     %0,  992(%1)"   : "=f"(A_tmp) : "r"(A_ptr) : "memory");
 dc8:	3e08a087          	flw	f1,992(x17)
  asm volatile("flw     %0,  992(%1)"   : "=f"(B_tmp) : "r"(B_ptr) : "memory");
 dcc:	3e082107          	flw	f2,992(x16)
  asm volatile("fadd.s  %0, %1, %2"     : "+f"(C_tmp) : "f"(A_tmp),  "f"(B_tmp));
 dd0:	0020f053          	fadd.s	f0,f1,f2
  //------------------------------------
  asm volatile("flw     %0,  996(%1)"   : "=f"(A_tmp) : "r"(A_ptr) : "memory");
 dd4:	3e48a087          	flw	f1,996(x17)
  asm volatile("flw     %0,  996(%1)"   : "=f"(B_tmp) : "r"(B_ptr) : "memory");
 dd8:	3e482107          	flw	f2,996(x16)
  asm volatile("fadd.s  %0, %1, %2"     : "+f"(C_tmp) : "f"(A_tmp),  "f"(B_tmp));
 ddc:	0020f053          	fadd.s	f0,f1,f2
  //------------------------------------
  asm volatile("flw     %0, 1000(%1)"   : "=f"(A_tmp) : "r"(A_ptr) : "memory");
 de0:	3e88a087          	flw	f1,1000(x17)
  asm volatile("flw     %0, 1000(%1)"   : "=f"(B_tmp) : "r"(B_ptr) : "memory");
 de4:	3e882107          	flw	f2,1000(x16)
  asm volatile("fadd.s  %0, %1, %2"     : "+f"(C_tmp) : "f"(A_tmp),  "f"(B_tmp));
 de8:	0020f053          	fadd.s	f0,f1,f2
  //------------------------------------
  asm volatile("flw     %0, 1004(%1)"   : "=f"(A_tmp) : "r"(A_ptr) : "memory");
 dec:	3ec8a087          	flw	f1,1004(x17)
  asm volatile("flw     %0, 1004(%1)"   : "=f"(B_tmp) : "r"(B_ptr) : "memory");
 df0:	3ec82107          	flw	f2,1004(x16)
  asm volatile("fadd.s  %0, %1, %2"     : "+f"(C_tmp) : "f"(A_tmp),  "f"(B_tmp));
 df4:	0020f053          	fadd.s	f0,f1,f2
  //------------------------------------
  asm volatile("flw     %0, 1008(%1)"   : "=f"(A_tmp) : "r"(A_ptr) : "memory");
 df8:	3f08a087          	flw	f1,1008(x17)
  asm volatile("flw     %0, 1008(%1)"   : "=f"(B_tmp) : "r"(B_ptr) : "memory");
 dfc:	3f082107          	flw	f2,1008(x16)
  asm volatile("fadd.s  %0, %1, %2"     : "+f"(C_tmp) : "f"(A_tmp),  "f"(B_tmp));
 e00:	0020f053          	fadd.s	f0,f1,f2
  //------------------------------------
  asm volatile("flw     %0, 1012(%1)"   : "=f"(A_tmp) : "r"(A_ptr) : "memory");
 e04:	3f48a087          	flw	f1,1012(x17)
  asm volatile("flw     %0, 1012(%1)"   : "=f"(B_tmp) : "r"(B_ptr) : "memory");
 e08:	3f482107          	flw	f2,1012(x16)
  asm volatile("fadd.s  %0, %1, %2"     : "+f"(C_tmp) : "f"(A_tmp),  "f"(B_tmp));
 e0c:	0020f053          	fadd.s	f0,f1,f2
  //------------------------------------
  asm volatile("flw     %0, 1016(%1)"   : "=f"(A_tmp) : "r"(A_ptr) : "memory");
 e10:	3f88a087          	flw	f1,1016(x17)
  asm volatile("flw     %0, 1016(%1)"   : "=f"(B_tmp) : "r"(B_ptr) : "memory");
 e14:	3f882107          	flw	f2,1016(x16)
  asm volatile("fadd.s  %0, %1, %2"     : "+f"(C_tmp) : "f"(A_tmp),  "f"(B_tmp));
 e18:	0020f053          	fadd.s	f0,f1,f2
  //------------------------------------
  bsg_saif_end();
 e1c:	00200013          	li	x0,2
  //------------------------------------
  C[0] = C_tmp;
 e20:	00062027          	fsw	f0,0(x12)
	barrier.sync();

	return 0;
 e24:	00000513          	li	x10,0
 e28:	000015b7          	lui	x11,0x1
 e2c:	80058593          	addi	x11,x11,-2048 # 800 <kernel_energy_fadd_demo+0x620>
 e30:	00b10133          	add	x2,x2,x11
 e34:	00008067          	ret

00000e38 <_GLOBAL__sub_I_kernel.cpp>:

        // IF the location of _local_alsert and _done_list changes in
        // the linker sections (e.g. to DRAM, for some reason) they
        // MUST be initialized to 0 to work correctly.
        
    volatile unsigned int  _local_alert = 0;
 e38:	04002c23          	sw	x0,88(x0) # 58 <barrier>
 e3c:	05800593          	li	x11,88
    volatile unsigned char _done_list[ BARRIER_X_DIM ] = {0};
 e40:	00058223          	sb	x0,4(x11)


    // Reinitializes the done_list to zero
    void reset() {
        for (int i = 0; i < BARRIER_X_DIM; i ++) {
            this->_done_list[i] = 0;
 e44:	00058223          	sb	x0,4(x11)
        }
        _local_alert = 0;
 e48:	04002c23          	sw	x0,88(x0) # 58 <barrier>

template <int BARRIER_Y_DIM>
class bsg_col_barrier {
private:

    volatile unsigned int  _local_alert = 0;
 e4c:	0005a423          	sw	x0,8(x11)
    volatile unsigned char _done_list[ BARRIER_Y_DIM ] = {0};
 e50:	00058623          	sb	x0,12(x11)


    // Reinitializes the done_list to zero
    void reset() {
        for (int i = 0; i < BARRIER_Y_DIM; i ++) {
            this->_done_list[i] = 0;
 e54:	00058623          	sb	x0,12(x11)
        }
        _local_alert = 0;
 e58:	0005a423          	sw	x0,8(x11)
            this->_done_list[i] = 0;
 e5c:	00058223          	sb	x0,4(x11)
        _local_alert = 0;
 e60:	04002c23          	sw	x0,88(x0) # 58 <barrier>
            this->_done_list[i] = 0;
 e64:	00058623          	sb	x0,12(x11)
        _local_alert = 0;
 e68:	0005a423          	sw	x0,8(x11)
 e6c:	00008067          	ret

00000e70 <main>:
#include "bsg_cuda_lite_runtime.h"


int main()
{
        __wait_until_valid_func();
 e70:	03c02283          	lw	x5,60(x0) # 3c <cuda_kernel_not_loaded_val>
 e74:	05000413          	li	x8,80
 e78:	1004232f          	lr.w	x6,(x8)
 e7c:	00629463          	bne	x5,x6,e84 <__init_param>
 e80:	140422af          	lr.w.aq	x5,(x8)

00000e84 <__init_param>:
 e84:	05000293          	li	x5,80
 e88:	0002a483          	lw	x9,0(x5)
 e8c:	04c00293          	li	x5,76
 e90:	0002a903          	lw	x18,0(x5)
 e94:	04800293          	li	x5,72
 e98:	0002a983          	lw	x19,0(x5)
 e9c:	04400293          	li	x5,68
 ea0:	0002aa03          	lw	x20,0(x5)

00000ea4 <__load_argument>:
 ea4:	0009a503          	lw	x10,0(x19)
 ea8:	0049a583          	lw	x11,4(x19)
 eac:	0089a603          	lw	x12,8(x19)
 eb0:	00c9a683          	lw	x13,12(x19)
 eb4:	0109a703          	lw	x14,16(x19)
 eb8:	0149a783          	lw	x15,20(x19)
 ebc:	0189a803          	lw	x16,24(x19)
 ec0:	01c9a883          	lw	x17,28(x19)
 ec4:	00800293          	li	x5,8
 ec8:	0322de63          	bge	x5,x18,f04 <__invoke_kernel>
 ecc:	ff890293          	addi	x5,x18,-8
 ed0:	00229293          	slli	x5,x5,0x2
 ed4:	40510133          	sub	x2,x2,x5
 ed8:	00800293          	li	x5,8
 edc:	02000313          	li	x6,32
 ee0:	00000e13          	li	x28,0

00000ee4 <__load_stack>:
 ee4:	013303b3          	add	x7,x6,x19
 ee8:	0003ae83          	lw	x29,0(x7)
 eec:	002e0f33          	add	x30,x28,x2
 ef0:	01df2023          	sw	x29,0(x30)
 ef4:	00128293          	addi	x5,x5,1
 ef8:	00430313          	addi	x6,x6,4
 efc:	004e0e13          	addi	x28,x28,4
 f00:	ff22c2e3          	blt	x5,x18,ee4 <__load_stack>

00000f04 <__invoke_kernel>:
 f04:	000480e7          	jalr	x9
 f08:	00800293          	li	x5,8
 f0c:	0122d863          	bge	x5,x18,f1c <__kernel_return>
 f10:	ff890293          	addi	x5,x18,-8
 f14:	00229293          	slli	x5,x5,0x2
 f18:	00510133          	add	x2,x2,x5

00000f1c <__kernel_return>:
 f1c:	03c02283          	lw	x5,60(x0) # 3c <cuda_kernel_not_loaded_val>
 f20:	00542023          	sw	x5,0(x8)
  if (__bsg_id == 0) 
 f24:	02402283          	lw	x5,36(x0) # 24 <__bsg_id>
 f28:	00029863          	bnez	x5,f38 <__kernel_return+0x1c>
     *signal_ptr = cuda_finish_signal_val;     
 f2c:	04402383          	lw	x7,68(x0) # 44 <cuda_finish_signal_addr>
 f30:	04002503          	lw	x10,64(x0) # 40 <cuda_finish_signal_val>
 f34:	00a3a023          	sw	x10,0(x7)
 f38:	f39ff06f          	j	e70 <main>
}
 f3c:	00000513          	li	x10,0
 f40:	00008067          	ret

00000f44 <__.text.dram_end>:
 f44:	0000                	unimp
	...
